
ATmega16.elf:     file format elf32-avr

Sections:
Idx Name          Size      VMA       LMA       File off  Algn
  0 .text         000015f6  00000000  00000000  000000b4  2**1
                  CONTENTS, ALLOC, LOAD, READONLY, CODE
  1 .data         00000196  00800060  000015f6  000016aa  2**0
                  CONTENTS, ALLOC, LOAD, DATA
  2 .bss          000000e1  008001f6  008001f6  00001840  2**0
                  ALLOC
  3 .eeprom       000000e5  00810000  00810000  00001840  2**0
                  CONTENTS, ALLOC, LOAD, DATA
  4 .stab         00001164  00000000  00000000  00001928  2**2
                  CONTENTS, READONLY, DEBUGGING
  5 .stabstr      000004b5  00000000  00000000  00002a8c  2**0
                  CONTENTS, READONLY, DEBUGGING
  6 .debug_aranges 00000080  00000000  00000000  00002f41  2**0
                  CONTENTS, READONLY, DEBUGGING
  7 .debug_pubnames 00000473  00000000  00000000  00002fc1  2**0
                  CONTENTS, READONLY, DEBUGGING
  8 .debug_info   00001697  00000000  00000000  00003434  2**0
                  CONTENTS, READONLY, DEBUGGING
  9 .debug_abbrev 00000611  00000000  00000000  00004acb  2**0
                  CONTENTS, READONLY, DEBUGGING
 10 .debug_line   00001459  00000000  00000000  000050dc  2**0
                  CONTENTS, READONLY, DEBUGGING
 11 .debug_frame  00000220  00000000  00000000  00006538  2**2
                  CONTENTS, READONLY, DEBUGGING
 12 .debug_str    000006af  00000000  00000000  00006758  2**0
                  CONTENTS, READONLY, DEBUGGING
 13 .debug_loc    00000bdd  00000000  00000000  00006e07  2**0
                  CONTENTS, READONLY, DEBUGGING
 14 .debug_pubtypes 000000fc  00000000  00000000  000079e4  2**0
                  CONTENTS, READONLY, DEBUGGING
 15 .debug_ranges 00000128  00000000  00000000  00007ae0  2**0
                  CONTENTS, READONLY, DEBUGGING

Disassembly of section .text:

00000000 <__vectors>:
       0:	0c 94 02 02 	jmp	0x404	; 0x404 <__ctors_end>
       4:	0c 94 1f 02 	jmp	0x43e	; 0x43e <__bad_interrupt>
       8:	0c 94 1f 02 	jmp	0x43e	; 0x43e <__bad_interrupt>
       c:	0c 94 1f 02 	jmp	0x43e	; 0x43e <__bad_interrupt>
      10:	0c 94 1f 02 	jmp	0x43e	; 0x43e <__bad_interrupt>
      14:	0c 94 1f 02 	jmp	0x43e	; 0x43e <__bad_interrupt>
      18:	0c 94 1f 02 	jmp	0x43e	; 0x43e <__bad_interrupt>
      1c:	0c 94 1f 02 	jmp	0x43e	; 0x43e <__bad_interrupt>
      20:	0c 94 1f 02 	jmp	0x43e	; 0x43e <__bad_interrupt>
      24:	0c 94 1f 02 	jmp	0x43e	; 0x43e <__bad_interrupt>
      28:	0c 94 1f 02 	jmp	0x43e	; 0x43e <__bad_interrupt>
      2c:	0c 94 1f 02 	jmp	0x43e	; 0x43e <__bad_interrupt>
      30:	0c 94 1f 02 	jmp	0x43e	; 0x43e <__bad_interrupt>
      34:	0c 94 1f 02 	jmp	0x43e	; 0x43e <__bad_interrupt>
      38:	0c 94 1f 02 	jmp	0x43e	; 0x43e <__bad_interrupt>
      3c:	0c 94 1f 02 	jmp	0x43e	; 0x43e <__bad_interrupt>
      40:	0c 94 1f 02 	jmp	0x43e	; 0x43e <__bad_interrupt>
      44:	0c 94 1f 02 	jmp	0x43e	; 0x43e <__bad_interrupt>
      48:	0c 94 1f 02 	jmp	0x43e	; 0x43e <__bad_interrupt>
      4c:	0c 94 1f 02 	jmp	0x43e	; 0x43e <__bad_interrupt>
      50:	0c 94 1f 02 	jmp	0x43e	; 0x43e <__bad_interrupt>

00000054 <str_welcome>:
      54:	54 68 69 73 20 69 73 20 41 56 52 20 41 54 6d 65     This is AVR ATme
      64:	67 61 31 36 20 77 69 74 68 20 52 6f 75 6e 64 20     ga16 with Round 
      74:	52 6f 62 69 6e 00                                   Robin.

0000007a <str_data_save>:
      7a:	44 61 74 61 20 73 61 76 65 64 20 74 6f 20 45 45     Data saved to EE
      8a:	50 52 4f 4d 2e 00                                   PROM..

00000090 <str_data_clear>:
      90:	45 45 50 52 4f 4d 20 63 6c 65 61 72 65 64 2e 20     EEPROM cleared. 
      a0:	41 66 74 65 72 20 6e 65 78 74 20 72 65 73 65 74     After next reset
      b0:	20 64 65 66 61 75 6c 74 73 20 77 69 6c 6c 20 62      defaults will b
      c0:	65 20 75 73 65 64 2e 00                             e used..

000000c8 <str_reset>:
      c8:	53 79 73 74 65 6d 20 69 73 20 72 65 73 65 74 74     System is resett
      d8:	69 6e 67 2e 2e 2e 00                                ing....

000000df <str_err_inv_num>:
      df:	45 72 72 6f 72 3a 20 49 6e 76 61 6c 69 64 20 73     Error: Invalid s
      ef:	6c 61 76 65 20 6e 75 6d 62 65 72 00                 lave number.

000000fb <str_err_no_active>:
      fb:	45 72 72 6f 72 3a 20 4e 6f 20 61 63 74 69 76 65     Error: No active
     10b:	20 73 6c 61 76 65 73 20 61 76 61 69 6c 61 62 6c      slaves availabl
     11b:	65 00                                               e.

0000011d <str_err_current_disable>:
     11d:	45 72 72 6f 72 3a 20 43 75 72 72 65 6e 74 20 73     Error: Current s
     12d:	6c 61 76 65 20 69 73 20 64 69 73 61 62 6c 65 64     lave is disabled
	...

0000013e <str_help_header>:
     13e:	41 76 61 69 6c 61 62 6c 65 20 63 6f 6d 6d 61 6e     Available comman
     14e:	64 73 3a 00                                         ds:.

00000152 <str_help_print1>:
     152:	20 20 2a 20 70 72 69 6e 74 20 5b 4e 5d 20 20 20       * print [N]   
     162:	20 20 20 2d 20 44 69 73 70 6c 61 79 20 61 6c 6c        - Display all
     172:	20 61 63 74 69 76 65 20 73 6c 61 76 65 20 61 64      active slave ad
     182:	64 72 65 73 73 65 73 20 6f 72 20 74 68 65 20 6e     dresses or the n
     192:	65 78 74 20 4e 20 73 6c 61 76 65 73 2e 00           ext N slaves..

000001a0 <str_help_print2>:
     1a0:	20 20 20 20 20 20 20 20 20 20 20 20 20 20 20 57                    W
     1b0:	69 74 68 6f 75 74 20 4e 2c 20 64 69 73 70 6c 61     ithout N, displa
     1c0:	79 73 20 61 6c 6c 20 61 63 74 69 76 65 20 61 64     ys all active ad
     1d0:	64 72 65 73 73 65 73 2e 00                          dresses..

000001d9 <str_help_enable>:
     1d9:	20 20 2a 20 65 6e 61 62 6c 65 20 4e 20 20 20 20       * enable N    
     1e9:	2d 20 45 6e 61 62 6c 65 20 73 6c 61 76 65 20 77     - Enable slave w
     1f9:	69 74 68 20 6e 75 6d 62 65 72 20 4e 2e 00           ith number N..

00000207 <str_help_disable>:
     207:	20 20 2a 20 64 69 73 61 62 6c 65 20 4e 20 20 20       * disable N   
     217:	2d 20 44 69 73 61 62 6c 65 20 73 6c 61 76 65 20     - Disable slave 
     227:	77 69 74 68 20 6e 75 6d 62 65 72 20 4e 2e 00        with number N..

00000236 <str_help_current>:
     236:	20 20 2a 20 63 75 72 72 65 6e 74 20 20 20 20 20       * current     
     246:	20 2d 20 53 68 6f 77 20 74 68 65 20 63 75 72 72      - Show the curr
     256:	65 6e 74 20 61 63 74 69 76 65 20 73 6c 61 76 65     ent active slave
     266:	20 61 64 64 72 65 73 73 2e 00                        address..

00000270 <str_help_save>:
     270:	20 20 2a 20 73 61 76 65 20 20 20 20 20 20 20 20       * save        
     280:	20 20 2d 20 53 61 76 65 20 63 75 72 72 65 6e 74       - Save current
     290:	20 63 6f 6e 66 69 67 20 74 6f 20 45 45 50 52 4f      config to EEPRO
     2a0:	4d 2e 00                                            M..

000002a3 <str_help_clear>:
     2a3:	20 20 2a 20 63 6c 65 61 72 20 20 20 20 20 20 20       * clear       
     2b3:	20 20 20 2d 20 43 6c 65 61 72 20 45 45 50 52 4f        - Clear EEPRO
     2c3:	4d 20 64 61 74 61 20 61 6e 64 20 72 65 73 65 74     M data and reset
     2d3:	20 63 6f 6e 66 69 67 75 72 61 74 69 6f 6e 2e 00      configuration..

000002e3 <str_help_reset>:
     2e3:	20 20 2a 20 72 65 73 65 74 20 20 20 20 20 20 20       * reset       
     2f3:	20 20 20 2d 20 50 72 6f 67 72 61 6d 6d 61 74 69        - Programmati
     303:	63 61 6c 6c 79 20 72 65 73 65 74 20 74 68 65 20     cally reset the 
     313:	6d 69 63 72 6f 63 6f 6e 74 72 6f 6c 6c 65 72 2e     microcontroller.
	...

00000324 <str_help_help>:
     324:	20 20 2a 20 68 65 6c 70 20 20 20 20 20 20 20 20       * help        
     334:	20 20 20 2d 20 53 68 6f 77 20 74 68 69 73 20 68        - Show this h
     344:	65 6c 70 20 6d 65 73 73 61 67 65 2e 00              elp message..

00000351 <str_help_note>:
     351:	4e 6f 74 65 3a 00                                   Note:.

00000357 <str_help_note2>:
     357:	20 20 42 79 20 64 65 66 61 75 6c 74 2c 20 61 6e       By default, an
     367:	79 20 65 6e 74 65 72 65 64 20 73 74 72 69 6e 67     y entered string
     377:	20 77 69 6c 6c 20 62 65 20 74 72 65 61 74 65 64      will be treated
     387:	20 61 73 20 61 20 6d 65 73 73 61 67 65 20 74 6f      as a message to
	...

00000398 <str_help_note3>:
     398:	20 20 73 65 6e 64 20 74 6f 20 74 68 65 20 63 75       send to the cu
     3a8:	72 72 65 6e 74 20 73 6c 61 76 65 20 64 65 76 69     rrent slave devi
     3b8:	63 65 2e 20 54 68 65 20 73 79 73 74 65 6d 20 77     ce. The system w
     3c8:	69 6c 6c 20 62 61 6c 61 6e 63 65 20 74 68 65 00     ill balance the.

000003d8 <str_help_note4>:
     3d8:	20 20 6c 6f 61 64 20 75 73 69 6e 67 20 74 68 65       load using the
     3e8:	20 52 6f 75 6e 64 20 52 6f 62 69 6e 20 61 6c 67      Round Robin alg
     3f8:	6f 72 69 74 68 6d 2e 00                             orithm..

00000400 <pos.2005>:
     400:	80 c0 94 d4                                         ....

00000404 <__ctors_end>:
     404:	11 24       	eor	r1, r1
     406:	1f be       	out	0x3f, r1	; 63
     408:	cf e5       	ldi	r28, 0x5F	; 95
     40a:	d4 e0       	ldi	r29, 0x04	; 4
     40c:	de bf       	out	0x3e, r29	; 62
     40e:	cd bf       	out	0x3d, r28	; 61

00000410 <__do_copy_data>:
     410:	11 e0       	ldi	r17, 0x01	; 1
     412:	a0 e6       	ldi	r26, 0x60	; 96
     414:	b0 e0       	ldi	r27, 0x00	; 0
     416:	e6 ef       	ldi	r30, 0xF6	; 246
     418:	f5 e1       	ldi	r31, 0x15	; 21
     41a:	02 c0       	rjmp	.+4      	; 0x420 <__do_copy_data+0x10>
     41c:	05 90       	lpm	r0, Z+
     41e:	0d 92       	st	X+, r0
     420:	a6 3f       	cpi	r26, 0xF6	; 246
     422:	b1 07       	cpc	r27, r17
     424:	d9 f7       	brne	.-10     	; 0x41c <__do_copy_data+0xc>

00000426 <__do_clear_bss>:
     426:	12 e0       	ldi	r17, 0x02	; 2
     428:	a6 ef       	ldi	r26, 0xF6	; 246
     42a:	b1 e0       	ldi	r27, 0x01	; 1
     42c:	01 c0       	rjmp	.+2      	; 0x430 <.do_clear_bss_start>

0000042e <.do_clear_bss_loop>:
     42e:	1d 92       	st	X+, r1

00000430 <.do_clear_bss_start>:
     430:	a7 3d       	cpi	r26, 0xD7	; 215
     432:	b1 07       	cpc	r27, r17
     434:	e1 f7       	brne	.-8      	; 0x42e <.do_clear_bss_loop>
     436:	0e 94 4b 04 	call	0x896	; 0x896 <main>
     43a:	0c 94 f9 0a 	jmp	0x15f2	; 0x15f2 <_exit>

0000043e <__bad_interrupt>:
     43e:	0c 94 00 00 	jmp	0	; 0x0 <__vectors>

00000442 <USARTInit>:
const char str_help_note3[] PROGMEM   = "  send to the current slave device. The system will balance the";
const char str_help_note4[] PROGMEM   = "  load using the Round Robin algorithm.";

// ===== UART Функции =====
void USARTInit(unsigned int ubrr) {
    UBRRH = (unsigned char)(ubrr >> 8);
     442:	90 bd       	out	0x20, r25	; 32
    UBRRL = (unsigned char)(ubrr);
     444:	89 b9       	out	0x09, r24	; 9
    UCSRB = (1 << RXEN) | (1 << TXEN);
     446:	88 e1       	ldi	r24, 0x18	; 24
     448:	8a b9       	out	0x0a, r24	; 10
    UCSRC = (1 << URSEL) | (1 << UCSZ0) | (1 << UCSZ1);
     44a:	86 e8       	ldi	r24, 0x86	; 134
     44c:	80 bd       	out	0x20, r24	; 32
}
     44e:	08 95       	ret

00000450 <USARTTransmitChar>:

void USARTTransmitChar(char c) {
    while (!(UCSRA & (1 << UDRE)));
     450:	5d 9b       	sbis	0x0b, 5	; 11
     452:	fe cf       	rjmp	.-4      	; 0x450 <USARTTransmitChar>
    UDR = c;
     454:	8c b9       	out	0x0c, r24	; 12
}
     456:	08 95       	ret

00000458 <USARTTransmitString>:

void USARTTransmitString(const char *str) {
     458:	ef 92       	push	r14
     45a:	ff 92       	push	r15
     45c:	cf 93       	push	r28
     45e:	df 93       	push	r29
     460:	e8 2e       	mov	r14, r24
     462:	e7 01       	movw	r28, r14
     464:	7e 01       	movw	r14, r28
     466:	f9 2e       	mov	r15, r25
     468:	e7 01       	movw	r28, r14
    while (*str) USARTTransmitChar(*str++);
     46a:	02 c0       	rjmp	.+4      	; 0x470 <__stack+0x11>
     46c:	0e 94 28 02 	call	0x450	; 0x450 <USARTTransmitChar>
     470:	89 91       	ld	r24, Y+
     472:	88 23       	and	r24, r24
     474:	d9 f7       	brne	.-10     	; 0x46c <__stack+0xd>
}
     476:	df 91       	pop	r29
     478:	cf 91       	pop	r28
     47a:	ff 90       	pop	r15
     47c:	ef 90       	pop	r14
     47e:	08 95       	ret

00000480 <USARTTransmitStringLn>:

void USARTTransmitStringLn(const char *str) {
    USARTTransmitString(str);
     480:	0e 94 2c 02 	call	0x458	; 0x458 <USARTTransmitString>
    USARTTransmitChar('\r');
     484:	8d e0       	ldi	r24, 0x0D	; 13
     486:	0e 94 28 02 	call	0x450	; 0x450 <USARTTransmitChar>
    USARTTransmitChar('\n');
     48a:	8a e0       	ldi	r24, 0x0A	; 10
     48c:	0e 94 28 02 	call	0x450	; 0x450 <USARTTransmitChar>
}
     490:	08 95       	ret

00000492 <USARTTransmitStringP>:

// Вывод строки из PROGMEM
void USARTTransmitStringP(const char *pstr) {
     492:	cf 93       	push	r28
     494:	df 93       	push	r29
     496:	ec 01       	movw	r28, r24
    char c;
    while ((c = pgm_read_byte(pstr++))) USARTTransmitChar(c);
     498:	02 c0       	rjmp	.+4      	; 0x49e <USARTTransmitStringP+0xc>
     49a:	0e 94 28 02 	call	0x450	; 0x450 <USARTTransmitChar>
     49e:	fe 01       	movw	r30, r28
     4a0:	21 96       	adiw	r28, 0x01	; 1
     4a2:	84 91       	lpm	r24, Z+
     4a4:	88 23       	and	r24, r24
     4a6:	c9 f7       	brne	.-14     	; 0x49a <USARTTransmitStringP+0x8>
}
     4a8:	df 91       	pop	r29
     4aa:	cf 91       	pop	r28
     4ac:	08 95       	ret

000004ae <USARTTransmitStringLnP>:

void USARTTransmitStringLnP(const char *pstr) {
    USARTTransmitStringP(pstr);
     4ae:	0e 94 49 02 	call	0x492	; 0x492 <USARTTransmitStringP>
    USARTTransmitChar('\r');
     4b2:	8d e0       	ldi	r24, 0x0D	; 13
     4b4:	0e 94 28 02 	call	0x450	; 0x450 <USARTTransmitChar>
    USARTTransmitChar('\n');
     4b8:	8a e0       	ldi	r24, 0x0A	; 10
     4ba:	0e 94 28 02 	call	0x450	; 0x450 <USARTTransmitChar>
}
     4be:	08 95       	ret

000004c0 <USARTReceiveString>:

void USARTReceiveString(char *buf, uint8_t n) {
    uint8_t idx = 0;
     4c0:	40 e0       	ldi	r20, 0x00	; 0
    char c;
    do {
        while (!(UCSRA & (1 << RXC)));
        c = UDR;
        buf[idx++] = c;
    } while ((idx < n - 1) && (c != '\r'));
     4c2:	70 e0       	ldi	r23, 0x00	; 0
     4c4:	61 50       	subi	r22, 0x01	; 1
     4c6:	70 40       	sbci	r23, 0x00	; 0

void USARTReceiveString(char *buf, uint8_t n) {
    uint8_t idx = 0;
    char c;
    do {
        while (!(UCSRA & (1 << RXC)));
     4c8:	5f 9b       	sbis	0x0b, 7	; 11
     4ca:	fe cf       	rjmp	.-4      	; 0x4c8 <USARTReceiveString+0x8>
        c = UDR;
     4cc:	5c b1       	in	r21, 0x0c	; 12
        buf[idx++] = c;
     4ce:	fc 01       	movw	r30, r24
     4d0:	e4 0f       	add	r30, r20
     4d2:	f1 1d       	adc	r31, r1
     4d4:	50 83       	st	Z, r21
     4d6:	4f 5f       	subi	r20, 0xFF	; 255
    } while ((idx < n - 1) && (c != '\r'));
     4d8:	24 2f       	mov	r18, r20
     4da:	30 e0       	ldi	r19, 0x00	; 0
     4dc:	26 17       	cp	r18, r22
     4de:	37 07       	cpc	r19, r23
     4e0:	14 f4       	brge	.+4      	; 0x4e6 <USARTReceiveString+0x26>
     4e2:	5d 30       	cpi	r21, 0x0D	; 13
     4e4:	89 f7       	brne	.-30     	; 0x4c8 <USARTReceiveString+0x8>
    buf[idx - 1] = '\0';
     4e6:	84 0f       	add	r24, r20
     4e8:	91 1d       	adc	r25, r1
     4ea:	01 97       	sbiw	r24, 0x01	; 1
     4ec:	fc 01       	movw	r30, r24
     4ee:	10 82       	st	Z, r1
}
     4f0:	08 95       	ret

000004f2 <TWIInit>:

// ===== I2C (TWI) =====
#define SCL_CLOCK 100000L
void TWIInit(void) {
    TWSR = 0x00;
     4f2:	11 b8       	out	0x01, r1	; 1
    TWBR = ((F_CPU / SCL_CLOCK) - 16) / 2;
     4f4:	80 e2       	ldi	r24, 0x20	; 32
     4f6:	80 b9       	out	0x00, r24	; 0
    TWCR = (1 << TWEN);
     4f8:	84 e0       	ldi	r24, 0x04	; 4
     4fa:	86 bf       	out	0x36, r24	; 54
}
     4fc:	08 95       	ret

000004fe <TWIStart>:

void TWIStart(void) {
    TWCR = (1 << TWINT) | (1 << TWSTA) | (1 << TWEN);
     4fe:	84 ea       	ldi	r24, 0xA4	; 164
     500:	86 bf       	out	0x36, r24	; 54
    while (!(TWCR & (1 << TWINT)));
     502:	06 b6       	in	r0, 0x36	; 54
     504:	07 fe       	sbrs	r0, 7
     506:	fd cf       	rjmp	.-6      	; 0x502 <TWIStart+0x4>
}
     508:	08 95       	ret

0000050a <TWIStop>:

void TWIStop(void) {
    TWCR = (1 << TWINT) | (1 << TWEN) | (1 << TWSTO);
     50a:	84 e9       	ldi	r24, 0x94	; 148
     50c:	86 bf       	out	0x36, r24	; 54
    while (TWCR & (1 << TWSTO));
     50e:	06 b6       	in	r0, 0x36	; 54
     510:	04 fc       	sbrc	r0, 4
     512:	fd cf       	rjmp	.-6      	; 0x50e <TWIStop+0x4>
}
     514:	08 95       	ret

00000516 <TWIWrite>:

void TWIWrite(uint8_t data) {
    TWDR = data;
     516:	83 b9       	out	0x03, r24	; 3
    TWCR = (1 << TWINT) | (1 << TWEN);
     518:	84 e8       	ldi	r24, 0x84	; 132
     51a:	86 bf       	out	0x36, r24	; 54
    while (!(TWCR & (1 << TWINT)));
     51c:	06 b6       	in	r0, 0x36	; 54
     51e:	07 fe       	sbrs	r0, 7
     520:	fd cf       	rjmp	.-6      	; 0x51c <TWIWrite+0x6>
}
     522:	08 95       	ret

00000524 <LCD_Command>:

#define LCD_DATA_PORT PORTA
#define LCD_DATA_DDR  DDRA

void LCD_Command(unsigned char cmd) {
    LCD_DATA_PORT = cmd;
     524:	8b bb       	out	0x1b, r24	; 27
    PORTC &= ~(1 << LCD_RS);
     526:	aa 98       	cbi	0x15, 2	; 21
    PORTC |= (1 << LCD_E);
     528:	ac 9a       	sbi	0x15, 4	; 21
	#else
		//round up by default
		__ticks_dc = (uint32_t)(ceil(fabs(__tmp)));
	#endif

	__builtin_avr_delay_cycles(__ticks_dc);
     52a:	82 e0       	ldi	r24, 0x02	; 2
     52c:	8a 95       	dec	r24
     52e:	f1 f7       	brne	.-4      	; 0x52c <LCD_Command+0x8>
     530:	00 c0       	rjmp	.+0      	; 0x532 <LCD_Command+0xe>
    _delay_us(1);
    PORTC &= ~(1 << LCD_E);
     532:	ac 98       	cbi	0x15, 4	; 21
	#else
		//round up by default
		__ticks_dc = (uint32_t)(ceil(fabs(__tmp)));
	#endif

	__builtin_avr_delay_cycles(__ticks_dc);
     534:	8f e9       	ldi	r24, 0x9F	; 159
     536:	9f e0       	ldi	r25, 0x0F	; 15
     538:	01 97       	sbiw	r24, 0x01	; 1
     53a:	f1 f7       	brne	.-4      	; 0x538 <LCD_Command+0x14>
     53c:	00 c0       	rjmp	.+0      	; 0x53e <LCD_Command+0x1a>
     53e:	00 00       	nop
    _delay_ms(2);
}
     540:	08 95       	ret

00000542 <LCD_Char>:

void LCD_Char(unsigned char data) {
    LCD_DATA_PORT = data;
     542:	8b bb       	out	0x1b, r24	; 27
    PORTC |= (1 << LCD_RS);
     544:	aa 9a       	sbi	0x15, 2	; 21
    PORTC |= (1 << LCD_E);
     546:	ac 9a       	sbi	0x15, 4	; 21
	#else
		//round up by default
		__ticks_dc = (uint32_t)(ceil(fabs(__tmp)));
	#endif

	__builtin_avr_delay_cycles(__ticks_dc);
     548:	82 e0       	ldi	r24, 0x02	; 2
     54a:	8a 95       	dec	r24
     54c:	f1 f7       	brne	.-4      	; 0x54a <LCD_Char+0x8>
     54e:	00 c0       	rjmp	.+0      	; 0x550 <LCD_Char+0xe>
    _delay_us(1);
    PORTC &= ~(1 << LCD_E);
     550:	ac 98       	cbi	0x15, 4	; 21
	#else
		//round up by default
		__ticks_dc = (uint32_t)(ceil(fabs(__tmp)));
	#endif

	__builtin_avr_delay_cycles(__ticks_dc);
     552:	8f e9       	ldi	r24, 0x9F	; 159
     554:	9f e0       	ldi	r25, 0x0F	; 15
     556:	01 97       	sbiw	r24, 0x01	; 1
     558:	f1 f7       	brne	.-4      	; 0x556 <LCD_Char+0x14>
     55a:	00 c0       	rjmp	.+0      	; 0x55c <LCD_Char+0x1a>
     55c:	00 00       	nop
    _delay_ms(2);
}
     55e:	08 95       	ret

00000560 <LCD_Init>:

void LCD_Init() {
    LCD_DATA_DDR = 0xFF;
     560:	8f ef       	ldi	r24, 0xFF	; 255
     562:	8a bb       	out	0x1a, r24	; 26
    DDRC |= (1 << LCD_RS) | (1 << LCD_RW) | (1 << LCD_E);
     564:	84 b3       	in	r24, 0x14	; 20
     566:	8c 61       	ori	r24, 0x1C	; 28
     568:	84 bb       	out	0x14, r24	; 20
     56a:	8f e3       	ldi	r24, 0x3F	; 63
     56c:	9c e9       	ldi	r25, 0x9C	; 156
     56e:	01 97       	sbiw	r24, 0x01	; 1
     570:	f1 f7       	brne	.-4      	; 0x56e <LCD_Init+0xe>
     572:	00 c0       	rjmp	.+0      	; 0x574 <LCD_Init+0x14>
     574:	00 00       	nop
    _delay_ms(20);

    LCD_Command(0x38);
     576:	88 e3       	ldi	r24, 0x38	; 56
     578:	0e 94 92 02 	call	0x524	; 0x524 <LCD_Command>
    LCD_Command(0x0C);
     57c:	8c e0       	ldi	r24, 0x0C	; 12
     57e:	0e 94 92 02 	call	0x524	; 0x524 <LCD_Command>
    LCD_Command(0x06);
     582:	86 e0       	ldi	r24, 0x06	; 6
     584:	0e 94 92 02 	call	0x524	; 0x524 <LCD_Command>
    LCD_Command(0x01);
     588:	81 e0       	ldi	r24, 0x01	; 1
     58a:	0e 94 92 02 	call	0x524	; 0x524 <LCD_Command>
     58e:	8f e9       	ldi	r24, 0x9F	; 159
     590:	9f e0       	ldi	r25, 0x0F	; 15
     592:	01 97       	sbiw	r24, 0x01	; 1
     594:	f1 f7       	brne	.-4      	; 0x592 <LCD_Init+0x32>
     596:	00 c0       	rjmp	.+0      	; 0x598 <LCD_Init+0x38>
     598:	00 00       	nop
    _delay_ms(2);
}
     59a:	08 95       	ret

0000059c <LCD_Clear>:

void LCD_Clear() {
    LCD_Command(0x01);
     59c:	81 e0       	ldi	r24, 0x01	; 1
     59e:	0e 94 92 02 	call	0x524	; 0x524 <LCD_Command>
     5a2:	8f e9       	ldi	r24, 0x9F	; 159
     5a4:	9f e0       	ldi	r25, 0x0F	; 15
     5a6:	01 97       	sbiw	r24, 0x01	; 1
     5a8:	f1 f7       	brne	.-4      	; 0x5a6 <LCD_Clear+0xa>
     5aa:	00 c0       	rjmp	.+0      	; 0x5ac <LCD_Clear+0x10>
     5ac:	00 00       	nop
    _delay_ms(2);
}
     5ae:	08 95       	ret

000005b0 <LCD_SetCursor>:

void LCD_SetCursor(unsigned char row, unsigned char col) {
    static const uint8_t pos[4] PROGMEM = {0x80, 0xC0, 0x94, 0xD4};
    uint8_t base = pgm_read_byte(&pos[row - 1]);
     5b0:	e8 2f       	mov	r30, r24
     5b2:	f0 e0       	ldi	r31, 0x00	; 0
     5b4:	e1 50       	subi	r30, 0x01	; 1
     5b6:	fc 4f       	sbci	r31, 0xFC	; 252
     5b8:	84 91       	lpm	r24, Z+
    LCD_Command(base + col - 1);
     5ba:	61 50       	subi	r22, 0x01	; 1
     5bc:	86 0f       	add	r24, r22
     5be:	0e 94 92 02 	call	0x524	; 0x524 <LCD_Command>
}
     5c2:	08 95       	ret

000005c4 <LCD_String>:

void LCD_String(char *str) {
     5c4:	1f 93       	push	r17
     5c6:	cf 93       	push	r28
     5c8:	df 93       	push	r29
     5ca:	ec 01       	movw	r28, r24
    uint8_t i = 0;
     5cc:	10 e0       	ldi	r17, 0x00	; 0
    while (str[i]) LCD_Char(str[i++]);
     5ce:	03 c0       	rjmp	.+6      	; 0x5d6 <LCD_String+0x12>
     5d0:	1f 5f       	subi	r17, 0xFF	; 255
     5d2:	0e 94 a1 02 	call	0x542	; 0x542 <LCD_Char>
     5d6:	fe 01       	movw	r30, r28
     5d8:	e1 0f       	add	r30, r17
     5da:	f1 1d       	adc	r31, r1
     5dc:	80 81       	ld	r24, Z
     5de:	88 23       	and	r24, r24
     5e0:	b9 f7       	brne	.-18     	; 0x5d0 <LCD_String+0xc>
}
     5e2:	df 91       	pop	r29
     5e4:	cf 91       	pop	r28
     5e6:	1f 91       	pop	r17
     5e8:	08 95       	ret

000005ea <initSlaveAddresses>:

// ===== Функции инициализации и EEPROM =====

void initSlaveAddresses() {
     5ea:	a7 e6       	ldi	r26, 0x67	; 103
     5ec:	b2 e0       	ldi	r27, 0x02	; 2
     5ee:	e7 ef       	ldi	r30, 0xF7	; 247
     5f0:	f1 e0       	ldi	r31, 0x01	; 1
     5f2:	88 e0       	ldi	r24, 0x08	; 8
    for (uint8_t i = 0; i < NUM_SLAVES; i++) {
        slaveAddresses[i] = 0x08 + i;
        slaveEnabled[i] = 1;
     5f4:	91 e0       	ldi	r25, 0x01	; 1

// ===== Функции инициализации и EEPROM =====

void initSlaveAddresses() {
    for (uint8_t i = 0; i < NUM_SLAVES; i++) {
        slaveAddresses[i] = 0x08 + i;
     5f6:	8d 93       	st	X+, r24
        slaveEnabled[i] = 1;
     5f8:	91 93       	st	Z+, r25
     5fa:	8f 5f       	subi	r24, 0xFF	; 255
}

// ===== Функции инициализации и EEPROM =====

void initSlaveAddresses() {
    for (uint8_t i = 0; i < NUM_SLAVES; i++) {
     5fc:	88 37       	cpi	r24, 0x78	; 120
     5fe:	d9 f7       	brne	.-10     	; 0x5f6 <initSlaveAddresses+0xc>
        slaveAddresses[i] = 0x08 + i;
        slaveEnabled[i] = 1;
    }

    currentSlave = 0;
     600:	10 92 f6 01 	sts	0x01F6, r1
}
     604:	08 95       	ret

00000606 <toBinary>:

void toBinary(uint8_t value, char *binaryStr) {
    for (int i = 7; i >= 0; i--) binaryStr[7 - i] = (value & (1 << i)) ? '1' : '0';
     606:	fb 01       	movw	r30, r22
     608:	27 e0       	ldi	r18, 0x07	; 7
     60a:	30 e0       	ldi	r19, 0x00	; 0
     60c:	90 e0       	ldi	r25, 0x00	; 0
     60e:	ac 01       	movw	r20, r24
     610:	02 2e       	mov	r0, r18
     612:	02 c0       	rjmp	.+4      	; 0x618 <toBinary+0x12>
     614:	55 95       	asr	r21
     616:	47 95       	ror	r20
     618:	0a 94       	dec	r0
     61a:	e2 f7       	brpl	.-8      	; 0x614 <toBinary+0xe>
     61c:	40 ff       	sbrs	r20, 0
     61e:	02 c0       	rjmp	.+4      	; 0x624 <toBinary+0x1e>
     620:	41 e3       	ldi	r20, 0x31	; 49
     622:	01 c0       	rjmp	.+2      	; 0x626 <toBinary+0x20>
     624:	40 e3       	ldi	r20, 0x30	; 48
     626:	41 93       	st	Z+, r20
     628:	21 50       	subi	r18, 0x01	; 1
     62a:	30 40       	sbci	r19, 0x00	; 0
     62c:	4f ef       	ldi	r20, 0xFF	; 255
     62e:	2f 3f       	cpi	r18, 0xFF	; 255
     630:	34 07       	cpc	r19, r20
     632:	69 f7       	brne	.-38     	; 0x60e <toBinary+0x8>
    binaryStr[8] = '\0';
     634:	fb 01       	movw	r30, r22
     636:	10 86       	std	Z+8, r1	; 0x08
}
     638:	08 95       	ret

0000063a <saveDataToEEPROM>:

// Сохранение данных в EEPROM
void saveDataToEEPROM() {
     63a:	0f 93       	push	r16
     63c:	1f 93       	push	r17
     63e:	cf 93       	push	r28
     640:	df 93       	push	r29
    // Сохранение сигнатуры
    for (uint8_t i = 0; i < 4; i++)
        eeprom_update_byte(&eeSignature[i], eepromSignature[i]);

    // Сохранение адресов
    for (uint8_t i = 0; i < NUM_SLAVES; i++)
     642:	01 ef       	ldi	r16, 0xF1	; 241
     644:	11 e0       	ldi	r17, 0x01	; 1
    for (int i = 7; i >= 0; i--) binaryStr[7 - i] = (value & (1 << i)) ? '1' : '0';
    binaryStr[8] = '\0';
}

// Сохранение данных в EEPROM
void saveDataToEEPROM() {
     646:	c0 e0       	ldi	r28, 0x00	; 0
     648:	d0 e0       	ldi	r29, 0x00	; 0
    // Сохранение сигнатуры
    for (uint8_t i = 0; i < 4; i++)
        eeprom_update_byte(&eeSignature[i], eepromSignature[i]);
     64a:	f8 01       	movw	r30, r16
     64c:	61 91       	ld	r22, Z+
     64e:	8f 01       	movw	r16, r30
     650:	ce 01       	movw	r24, r28
     652:	80 50       	subi	r24, 0x00	; 0
     654:	90 40       	sbci	r25, 0x00	; 0
     656:	0e 94 11 0a 	call	0x1422	; 0x1422 <__eeupd_byte_m16>
     65a:	21 96       	adiw	r28, 0x01	; 1
}

// Сохранение данных в EEPROM
void saveDataToEEPROM() {
    // Сохранение сигнатуры
    for (uint8_t i = 0; i < 4; i++)
     65c:	c4 30       	cpi	r28, 0x04	; 4
     65e:	d1 05       	cpc	r29, r1
     660:	a1 f7       	brne	.-24     	; 0x64a <saveDataToEEPROM+0x10>
     662:	07 e6       	ldi	r16, 0x67	; 103
     664:	12 e0       	ldi	r17, 0x02	; 2
     666:	c0 e0       	ldi	r28, 0x00	; 0
     668:	d0 e0       	ldi	r29, 0x00	; 0
        eeprom_update_byte(&eeSignature[i], eepromSignature[i]);

    // Сохранение адресов
    for (uint8_t i = 0; i < NUM_SLAVES; i++)
        eeprom_update_byte(&eeSlaveAddresses[i], slaveAddresses[i]);
     66a:	f8 01       	movw	r30, r16
     66c:	61 91       	ld	r22, Z+
     66e:	8f 01       	movw	r16, r30
     670:	ce 01       	movw	r24, r28
     672:	8c 5f       	subi	r24, 0xFC	; 252
     674:	9f 4f       	sbci	r25, 0xFF	; 255
     676:	0e 94 11 0a 	call	0x1422	; 0x1422 <__eeupd_byte_m16>
     67a:	21 96       	adiw	r28, 0x01	; 1
    // Сохранение сигнатуры
    for (uint8_t i = 0; i < 4; i++)
        eeprom_update_byte(&eeSignature[i], eepromSignature[i]);

    // Сохранение адресов
    for (uint8_t i = 0; i < NUM_SLAVES; i++)
     67c:	c0 37       	cpi	r28, 0x70	; 112
     67e:	d1 05       	cpc	r29, r1
     680:	a1 f7       	brne	.-24     	; 0x66a <saveDataToEEPROM+0x30>
     682:	07 ef       	ldi	r16, 0xF7	; 247
     684:	11 e0       	ldi	r17, 0x01	; 1
     686:	c0 e0       	ldi	r28, 0x00	; 0
     688:	d0 e0       	ldi	r29, 0x00	; 0
        eeprom_update_byte(&eeSlaveAddresses[i], slaveAddresses[i]);

    // Сохранение статуса
    for (uint8_t i = 0; i < NUM_SLAVES; i++)
        eeprom_update_byte(&eeSlaveEnabled[i], slaveEnabled[i]);
     68a:	f8 01       	movw	r30, r16
     68c:	61 91       	ld	r22, Z+
     68e:	8f 01       	movw	r16, r30
     690:	ce 01       	movw	r24, r28
     692:	8c 58       	subi	r24, 0x8C	; 140
     694:	9f 4f       	sbci	r25, 0xFF	; 255
     696:	0e 94 11 0a 	call	0x1422	; 0x1422 <__eeupd_byte_m16>
     69a:	21 96       	adiw	r28, 0x01	; 1
    // Сохранение адресов
    for (uint8_t i = 0; i < NUM_SLAVES; i++)
        eeprom_update_byte(&eeSlaveAddresses[i], slaveAddresses[i]);

    // Сохранение статуса
    for (uint8_t i = 0; i < NUM_SLAVES; i++)
     69c:	c0 37       	cpi	r28, 0x70	; 112
     69e:	d1 05       	cpc	r29, r1
     6a0:	a1 f7       	brne	.-24     	; 0x68a <saveDataToEEPROM+0x50>
        eeprom_update_byte(&eeSlaveEnabled[i], slaveEnabled[i]);

    // Сохранение текущего слейва
    eeprom_update_byte(&eeCurrentSlave, currentSlave);
     6a2:	84 ee       	ldi	r24, 0xE4	; 228
     6a4:	90 e0       	ldi	r25, 0x00	; 0
     6a6:	60 91 f6 01 	lds	r22, 0x01F6
     6aa:	0e 94 11 0a 	call	0x1422	; 0x1422 <__eeupd_byte_m16>

    USARTTransmitStringLnP(str_data_save);
     6ae:	8a e7       	ldi	r24, 0x7A	; 122
     6b0:	90 e0       	ldi	r25, 0x00	; 0
     6b2:	0e 94 57 02 	call	0x4ae	; 0x4ae <USARTTransmitStringLnP>
}
     6b6:	df 91       	pop	r29
     6b8:	cf 91       	pop	r28
     6ba:	1f 91       	pop	r17
     6bc:	0f 91       	pop	r16
     6be:	08 95       	ret

000006c0 <loadDataFromEEPROM>:

// Загрузка данных из EEPROM
uint8_t loadDataFromEEPROM() {
     6c0:	0f 93       	push	r16
     6c2:	1f 93       	push	r17
     6c4:	cf 93       	push	r28
     6c6:	df 93       	push	r29
        slaveEnabled[i] = eeprom_read_byte(&eeSlaveEnabled[i]);

    // Загрузка текущего слейва
    currentSlave = eeprom_read_byte(&eeCurrentSlave);

    return 1;
     6c8:	01 ef       	ldi	r16, 0xF1	; 241
     6ca:	11 e0       	ldi	r17, 0x01	; 1

    USARTTransmitStringLnP(str_data_save);
}

// Загрузка данных из EEPROM
uint8_t loadDataFromEEPROM() {
     6cc:	c0 e0       	ldi	r28, 0x00	; 0
     6ce:	d0 e0       	ldi	r29, 0x00	; 0
    // Проверка сигнатуры
    for (uint8_t i = 0; i < 4; i++) {
        uint8_t b = eeprom_read_byte(&eeSignature[i]);
     6d0:	ce 01       	movw	r24, r28
     6d2:	80 50       	subi	r24, 0x00	; 0
     6d4:	90 40       	sbci	r25, 0x00	; 0
     6d6:	0e 94 09 0a 	call	0x1412	; 0x1412 <__eerd_byte_m16>
        if (b != eepromSignature[i]) {
     6da:	f8 01       	movw	r30, r16
     6dc:	91 91       	ld	r25, Z+
     6de:	8f 01       	movw	r16, r30
     6e0:	89 17       	cp	r24, r25
     6e2:	61 f5       	brne	.+88     	; 0x73c <loadDataFromEEPROM+0x7c>
     6e4:	21 96       	adiw	r28, 0x01	; 1
}

// Загрузка данных из EEPROM
uint8_t loadDataFromEEPROM() {
    // Проверка сигнатуры
    for (uint8_t i = 0; i < 4; i++) {
     6e6:	c4 30       	cpi	r28, 0x04	; 4
     6e8:	d1 05       	cpc	r29, r1
     6ea:	91 f7       	brne	.-28     	; 0x6d0 <loadDataFromEEPROM+0x10>
     6ec:	07 e6       	ldi	r16, 0x67	; 103
     6ee:	12 e0       	ldi	r17, 0x02	; 2
     6f0:	c0 e0       	ldi	r28, 0x00	; 0
     6f2:	d0 e0       	ldi	r29, 0x00	; 0
        }
    }

    // Загрузка адресов
    for (uint8_t i = 0; i < NUM_SLAVES; i++)
        slaveAddresses[i] = eeprom_read_byte(&eeSlaveAddresses[i]);
     6f4:	ce 01       	movw	r24, r28
     6f6:	8c 5f       	subi	r24, 0xFC	; 252
     6f8:	9f 4f       	sbci	r25, 0xFF	; 255
     6fa:	0e 94 09 0a 	call	0x1412	; 0x1412 <__eerd_byte_m16>
     6fe:	f8 01       	movw	r30, r16
     700:	81 93       	st	Z+, r24
     702:	8f 01       	movw	r16, r30
     704:	21 96       	adiw	r28, 0x01	; 1
            return 0; // Сигнатура не совпала
        }
    }

    // Загрузка адресов
    for (uint8_t i = 0; i < NUM_SLAVES; i++)
     706:	c0 37       	cpi	r28, 0x70	; 112
     708:	d1 05       	cpc	r29, r1
     70a:	a1 f7       	brne	.-24     	; 0x6f4 <loadDataFromEEPROM+0x34>
     70c:	07 ef       	ldi	r16, 0xF7	; 247
     70e:	11 e0       	ldi	r17, 0x01	; 1
     710:	c0 e0       	ldi	r28, 0x00	; 0
     712:	d0 e0       	ldi	r29, 0x00	; 0
        slaveAddresses[i] = eeprom_read_byte(&eeSlaveAddresses[i]);

    // Загрузка статуса
    for (uint8_t i = 0; i < NUM_SLAVES; i++)
        slaveEnabled[i] = eeprom_read_byte(&eeSlaveEnabled[i]);
     714:	ce 01       	movw	r24, r28
     716:	8c 58       	subi	r24, 0x8C	; 140
     718:	9f 4f       	sbci	r25, 0xFF	; 255
     71a:	0e 94 09 0a 	call	0x1412	; 0x1412 <__eerd_byte_m16>
     71e:	f8 01       	movw	r30, r16
     720:	81 93       	st	Z+, r24
     722:	8f 01       	movw	r16, r30
     724:	21 96       	adiw	r28, 0x01	; 1
    // Загрузка адресов
    for (uint8_t i = 0; i < NUM_SLAVES; i++)
        slaveAddresses[i] = eeprom_read_byte(&eeSlaveAddresses[i]);

    // Загрузка статуса
    for (uint8_t i = 0; i < NUM_SLAVES; i++)
     726:	c0 37       	cpi	r28, 0x70	; 112
     728:	d1 05       	cpc	r29, r1
     72a:	a1 f7       	brne	.-24     	; 0x714 <loadDataFromEEPROM+0x54>
        slaveEnabled[i] = eeprom_read_byte(&eeSlaveEnabled[i]);

    // Загрузка текущего слейва
    currentSlave = eeprom_read_byte(&eeCurrentSlave);
     72c:	84 ee       	ldi	r24, 0xE4	; 228
     72e:	90 e0       	ldi	r25, 0x00	; 0
     730:	0e 94 09 0a 	call	0x1412	; 0x1412 <__eerd_byte_m16>
     734:	80 93 f6 01 	sts	0x01F6, r24

    return 1;
     738:	81 e0       	ldi	r24, 0x01	; 1
     73a:	01 c0       	rjmp	.+2      	; 0x73e <loadDataFromEEPROM+0x7e>
uint8_t loadDataFromEEPROM() {
    // Проверка сигнатуры
    for (uint8_t i = 0; i < 4; i++) {
        uint8_t b = eeprom_read_byte(&eeSignature[i]);
        if (b != eepromSignature[i]) {
            return 0; // Сигнатура не совпала
     73c:	80 e0       	ldi	r24, 0x00	; 0

    // Загрузка текущего слейва
    currentSlave = eeprom_read_byte(&eeCurrentSlave);

    return 1;
}
     73e:	df 91       	pop	r29
     740:	cf 91       	pop	r28
     742:	1f 91       	pop	r17
     744:	0f 91       	pop	r16
     746:	08 95       	ret

00000748 <initialLoad>:

// Инициализация при старте
void initialLoad() {
    if (!loadDataFromEEPROM()) {
     748:	0e 94 60 03 	call	0x6c0	; 0x6c0 <loadDataFromEEPROM>
     74c:	88 23       	and	r24, r24
     74e:	21 f4       	brne	.+8      	; 0x758 <initialLoad+0x10>
        // Если данные ещё не сохранены, создаём по умолчанию
        initSlaveAddresses();
     750:	0e 94 f5 02 	call	0x5ea	; 0x5ea <initSlaveAddresses>
        // Сохраняем их
        saveDataToEEPROM();
     754:	0e 94 1d 03 	call	0x63a	; 0x63a <saveDataToEEPROM>
     758:	08 95       	ret

0000075a <enableSlave>:
    }
}

// ===== Управление слейвами =====

void enableSlave(uint8_t slaveNumber) {
     75a:	0f 93       	push	r16
     75c:	1f 93       	push	r17
     75e:	df 93       	push	r29
     760:	cf 93       	push	r28
     762:	cd b7       	in	r28, 0x3d	; 61
     764:	de b7       	in	r29, 0x3e	; 62
     766:	6e 97       	sbiw	r28, 0x1e	; 30
     768:	0f b6       	in	r0, 0x3f	; 63
     76a:	f8 94       	cli
     76c:	de bf       	out	0x3e, r29	; 62
     76e:	0f be       	out	0x3f, r0	; 63
     770:	cd bf       	out	0x3d, r28	; 61
    if (slaveNumber < 1 || slaveNumber > NUM_SLAVES) {
     772:	98 2f       	mov	r25, r24
     774:	91 50       	subi	r25, 0x01	; 1
     776:	90 37       	cpi	r25, 0x70	; 112
     778:	28 f0       	brcs	.+10     	; 0x784 <enableSlave+0x2a>
        USARTTransmitStringLnP(str_err_inv_num);
     77a:	8f ed       	ldi	r24, 0xDF	; 223
     77c:	90 e0       	ldi	r25, 0x00	; 0
     77e:	0e 94 57 02 	call	0x4ae	; 0x4ae <USARTTransmitStringLnP>
        return;
     782:	28 c0       	rjmp	.+80     	; 0x7d4 <enableSlave+0x7a>
    }
    slaveEnabled[slaveNumber - 1] = 1;
     784:	90 e0       	ldi	r25, 0x00	; 0
     786:	fc 01       	movw	r30, r24
     788:	ea 50       	subi	r30, 0x0A	; 10
     78a:	fe 4f       	sbci	r31, 0xFE	; 254
     78c:	21 e0       	ldi	r18, 0x01	; 1
     78e:	20 83       	st	Z, r18
    char outBuffer[30];
    sprintf(outBuffer, "Slave %3d enabled", slaveNumber);
     790:	00 d0       	rcall	.+0      	; 0x792 <enableSlave+0x38>
     792:	00 d0       	rcall	.+0      	; 0x794 <enableSlave+0x3a>
     794:	00 d0       	rcall	.+0      	; 0x796 <enableSlave+0x3c>
     796:	ed b7       	in	r30, 0x3d	; 61
     798:	fe b7       	in	r31, 0x3e	; 62
     79a:	31 96       	adiw	r30, 0x01	; 1
     79c:	8e 01       	movw	r16, r28
     79e:	0f 5f       	subi	r16, 0xFF	; 255
     7a0:	1f 4f       	sbci	r17, 0xFF	; 255
     7a2:	ad b7       	in	r26, 0x3d	; 61
     7a4:	be b7       	in	r27, 0x3e	; 62
     7a6:	12 96       	adiw	r26, 0x02	; 2
     7a8:	1c 93       	st	X, r17
     7aa:	0e 93       	st	-X, r16
     7ac:	11 97       	sbiw	r26, 0x01	; 1
     7ae:	20 e6       	ldi	r18, 0x60	; 96
     7b0:	30 e0       	ldi	r19, 0x00	; 0
     7b2:	33 83       	std	Z+3, r19	; 0x03
     7b4:	22 83       	std	Z+2, r18	; 0x02
     7b6:	95 83       	std	Z+5, r25	; 0x05
     7b8:	84 83       	std	Z+4, r24	; 0x04
     7ba:	0e 94 ff 07 	call	0xffe	; 0xffe <sprintf>
    USARTTransmitStringLn(outBuffer);
     7be:	8d b7       	in	r24, 0x3d	; 61
     7c0:	9e b7       	in	r25, 0x3e	; 62
     7c2:	06 96       	adiw	r24, 0x06	; 6
     7c4:	0f b6       	in	r0, 0x3f	; 63
     7c6:	f8 94       	cli
     7c8:	9e bf       	out	0x3e, r25	; 62
     7ca:	0f be       	out	0x3f, r0	; 63
     7cc:	8d bf       	out	0x3d, r24	; 61
     7ce:	c8 01       	movw	r24, r16
     7d0:	0e 94 40 02 	call	0x480	; 0x480 <USARTTransmitStringLn>
}
     7d4:	6e 96       	adiw	r28, 0x1e	; 30
     7d6:	0f b6       	in	r0, 0x3f	; 63
     7d8:	f8 94       	cli
     7da:	de bf       	out	0x3e, r29	; 62
     7dc:	0f be       	out	0x3f, r0	; 63
     7de:	cd bf       	out	0x3d, r28	; 61
     7e0:	cf 91       	pop	r28
     7e2:	df 91       	pop	r29
     7e4:	1f 91       	pop	r17
     7e6:	0f 91       	pop	r16
     7e8:	08 95       	ret

000007ea <disableSlave>:

void disableSlave(uint8_t slaveNumber) {
     7ea:	0f 93       	push	r16
     7ec:	1f 93       	push	r17
     7ee:	df 93       	push	r29
     7f0:	cf 93       	push	r28
     7f2:	cd b7       	in	r28, 0x3d	; 61
     7f4:	de b7       	in	r29, 0x3e	; 62
     7f6:	6e 97       	sbiw	r28, 0x1e	; 30
     7f8:	0f b6       	in	r0, 0x3f	; 63
     7fa:	f8 94       	cli
     7fc:	de bf       	out	0x3e, r29	; 62
     7fe:	0f be       	out	0x3f, r0	; 63
     800:	cd bf       	out	0x3d, r28	; 61
    if (slaveNumber < 1 || slaveNumber > NUM_SLAVES) {
     802:	98 2f       	mov	r25, r24
     804:	91 50       	subi	r25, 0x01	; 1
     806:	90 37       	cpi	r25, 0x70	; 112
     808:	28 f0       	brcs	.+10     	; 0x814 <disableSlave+0x2a>
        USARTTransmitStringLnP(str_err_inv_num);
     80a:	8f ed       	ldi	r24, 0xDF	; 223
     80c:	90 e0       	ldi	r25, 0x00	; 0
     80e:	0e 94 57 02 	call	0x4ae	; 0x4ae <USARTTransmitStringLnP>
        return;
     812:	27 c0       	rjmp	.+78     	; 0x862 <disableSlave+0x78>
    }
    slaveEnabled[slaveNumber - 1] = 0;
     814:	90 e0       	ldi	r25, 0x00	; 0
     816:	fc 01       	movw	r30, r24
     818:	ea 50       	subi	r30, 0x0A	; 10
     81a:	fe 4f       	sbci	r31, 0xFE	; 254
     81c:	10 82       	st	Z, r1
    char outBuffer[30];
    sprintf(outBuffer, "Slave %3d disabled", slaveNumber);
     81e:	00 d0       	rcall	.+0      	; 0x820 <disableSlave+0x36>
     820:	00 d0       	rcall	.+0      	; 0x822 <disableSlave+0x38>
     822:	00 d0       	rcall	.+0      	; 0x824 <disableSlave+0x3a>
     824:	ed b7       	in	r30, 0x3d	; 61
     826:	fe b7       	in	r31, 0x3e	; 62
     828:	31 96       	adiw	r30, 0x01	; 1
     82a:	8e 01       	movw	r16, r28
     82c:	0f 5f       	subi	r16, 0xFF	; 255
     82e:	1f 4f       	sbci	r17, 0xFF	; 255
     830:	ad b7       	in	r26, 0x3d	; 61
     832:	be b7       	in	r27, 0x3e	; 62
     834:	12 96       	adiw	r26, 0x02	; 2
     836:	1c 93       	st	X, r17
     838:	0e 93       	st	-X, r16
     83a:	11 97       	sbiw	r26, 0x01	; 1
     83c:	22 e7       	ldi	r18, 0x72	; 114
     83e:	30 e0       	ldi	r19, 0x00	; 0
     840:	33 83       	std	Z+3, r19	; 0x03
     842:	22 83       	std	Z+2, r18	; 0x02
     844:	95 83       	std	Z+5, r25	; 0x05
     846:	84 83       	std	Z+4, r24	; 0x04
     848:	0e 94 ff 07 	call	0xffe	; 0xffe <sprintf>
    USARTTransmitStringLn(outBuffer);
     84c:	8d b7       	in	r24, 0x3d	; 61
     84e:	9e b7       	in	r25, 0x3e	; 62
     850:	06 96       	adiw	r24, 0x06	; 6
     852:	0f b6       	in	r0, 0x3f	; 63
     854:	f8 94       	cli
     856:	9e bf       	out	0x3e, r25	; 62
     858:	0f be       	out	0x3f, r0	; 63
     85a:	8d bf       	out	0x3d, r24	; 61
     85c:	c8 01       	movw	r24, r16
     85e:	0e 94 40 02 	call	0x480	; 0x480 <USARTTransmitStringLn>
}
     862:	6e 96       	adiw	r28, 0x1e	; 30
     864:	0f b6       	in	r0, 0x3f	; 63
     866:	f8 94       	cli
     868:	de bf       	out	0x3e, r29	; 62
     86a:	0f be       	out	0x3f, r0	; 63
     86c:	cd bf       	out	0x3d, r28	; 61
     86e:	cf 91       	pop	r28
     870:	df 91       	pop	r29
     872:	1f 91       	pop	r17
     874:	0f 91       	pop	r16
     876:	08 95       	ret

00000878 <softwareReset>:

// ===== Функция для программного сброса =====
void softwareReset() {
    // Включаем Watchdog Timer с минимальным тайм-аутом
    wdt_enable(WDTO_15MS);
     878:	28 e0       	ldi	r18, 0x08	; 8
     87a:	88 e1       	ldi	r24, 0x18	; 24
     87c:	90 e0       	ldi	r25, 0x00	; 0
     87e:	0f b6       	in	r0, 0x3f	; 63
     880:	f8 94       	cli
     882:	a8 95       	wdr
     884:	81 bd       	out	0x21, r24	; 33
     886:	0f be       	out	0x3f, r0	; 63
     888:	21 bd       	out	0x21, r18	; 33
     88a:	ff cf       	rjmp	.-2      	; 0x88a <softwareReset+0x12>

0000088c <disableWatchdog>:
}

// ===== Функция для отключения Watchdog Timer =====
void disableWatchdog() {
    // Отключаем Watchdog Timer согласно последовательности из даташита
    WDTCR |= (1 << WDE) | (1 << WDTOE); // Установить WDE и WDTOE
     88c:	81 b5       	in	r24, 0x21	; 33
     88e:	88 61       	ori	r24, 0x18	; 24
     890:	81 bd       	out	0x21, r24	; 33
    WDTCR = 0x00;                      // Отключить WDT
     892:	11 bc       	out	0x21, r1	; 33
}
     894:	08 95       	ret

00000896 <main>:

int main(void) {
     896:	2f 92       	push	r2
     898:	3f 92       	push	r3
     89a:	4f 92       	push	r4
     89c:	5f 92       	push	r5
     89e:	7f 92       	push	r7
     8a0:	8f 92       	push	r8
     8a2:	9f 92       	push	r9
     8a4:	af 92       	push	r10
     8a6:	bf 92       	push	r11
     8a8:	cf 92       	push	r12
     8aa:	df 92       	push	r13
     8ac:	ef 92       	push	r14
     8ae:	ff 92       	push	r15
     8b0:	0f 93       	push	r16
     8b2:	1f 93       	push	r17
     8b4:	df 93       	push	r29
     8b6:	cf 93       	push	r28
     8b8:	cd b7       	in	r28, 0x3d	; 61
     8ba:	de b7       	in	r29, 0x3e	; 62
     8bc:	cd 5b       	subi	r28, 0xBD	; 189
     8be:	d0 40       	sbci	r29, 0x00	; 0
     8c0:	0f b6       	in	r0, 0x3f	; 63
     8c2:	f8 94       	cli
     8c4:	de bf       	out	0x3e, r29	; 62
     8c6:	0f be       	out	0x3f, r0	; 63
     8c8:	cd bf       	out	0x3d, r28	; 61
    char outBuffer[50];
    char binaryAddress[9];
    char displayBuffer[21];

    // Отключаем Watchdog Timer при старте, чтобы избежать непреднамеренных сбросов
    MCUCSR |= (1 << WDRF);   // Очищаем флаг сброса от WDT
     8ca:	84 b7       	in	r24, 0x34	; 52
     8cc:	88 60       	ori	r24, 0x08	; 8
     8ce:	84 bf       	out	0x34, r24	; 52
    disableWatchdog();       // Отключаем Watchdog Timer
     8d0:	0e 94 46 04 	call	0x88c	; 0x88c <disableWatchdog>

    USARTInit(MYUBRR);
     8d4:	83 e3       	ldi	r24, 0x33	; 51
     8d6:	90 e0       	ldi	r25, 0x00	; 0
     8d8:	0e 94 21 02 	call	0x442	; 0x442 <USARTInit>
    TWIInit();
     8dc:	0e 94 79 02 	call	0x4f2	; 0x4f2 <TWIInit>
    LCD_Init();
     8e0:	0e 94 b0 02 	call	0x560	; 0x560 <LCD_Init>

    initialLoad(); // Загружаем данные из EEPROM или создаём новые
     8e4:	0e 94 a4 03 	call	0x748	; 0x748 <initialLoad>
    
    USARTTransmitStringLnP(str_welcome);
     8e8:	84 e5       	ldi	r24, 0x54	; 84
     8ea:	90 e0       	ldi	r25, 0x00	; 0
     8ec:	0e 94 57 02 	call	0x4ae	; 0x4ae <USARTTransmitStringLnP>

    while (1) {
        USARTReceiveString(buffer, sizeof(buffer));
     8f0:	8e 01       	movw	r16, r28
     8f2:	0f 5e       	subi	r16, 0xEF	; 239
     8f4:	1f 4f       	sbci	r17, 0xFF	; 255
        sprintf(outBuffer, "> %s", buffer);
     8f6:	6a e3       	ldi	r22, 0x3A	; 58
     8f8:	e6 2e       	mov	r14, r22
     8fa:	f1 2c       	mov	r15, r1
     8fc:	ec 0e       	add	r14, r28
     8fe:	fd 1e       	adc	r15, r29
                index = currentSlave;
            }

            uint8_t printed = 0;
            for (uint8_t i = 0; i < NUM_SLAVES && (n == 0 || printed < n); i++) {
                toBinary(slaveAddresses[index], binaryAddress);
     900:	58 e0       	ldi	r21, 0x08	; 8
     902:	45 2e       	mov	r4, r21
     904:	51 2c       	mov	r5, r1
     906:	4c 0e       	add	r4, r28
     908:	5d 1e       	adc	r5, r29

            TWIStart();
            TWIWrite(transformedAddress);

            LCD_SetCursor(4, 1);
            char i2cMessage[80] = "I2C Msg:";
     90a:	4c e6       	ldi	r20, 0x6C	; 108
     90c:	a4 2e       	mov	r10, r20
     90e:	b1 2c       	mov	r11, r1
     910:	ac 0e       	add	r10, r28
     912:	bd 1e       	adc	r11, r29
     914:	a5 01       	movw	r20, r10
     916:	47 5f       	subi	r20, 0xF7	; 247
     918:	5f 4f       	sbci	r21, 0xFF	; 255
     91a:	c4 54       	subi	r28, 0x44	; 68
     91c:	df 4f       	sbci	r29, 0xFF	; 255
     91e:	59 83       	std	Y+1, r21	; 0x01
     920:	48 83       	st	Y, r20
     922:	cc 5b       	subi	r28, 0xBC	; 188
     924:	d0 40       	sbci	r29, 0x00	; 0
            uint8_t i = 0;
            while (buffer[i]) {
                TWIWrite(buffer[i]);

                char temp[7];
                sprintf(temp, " 0x%02X", buffer[i]);
     926:	1e 01       	movw	r2, r28
     928:	08 94       	sec
     92a:	21 1c       	adc	r2, r1
     92c:	31 1c       	adc	r3, r1
     92e:	02 c0       	rjmp	.+4      	; 0x934 <main+0x9e>
    TWIInit();
    LCD_Init();

    initialLoad(); // Загружаем данные из EEPROM или создаём новые
    
    USARTTransmitStringLnP(str_welcome);
     930:	80 93 f6 01 	sts	0x01F6, r24

    while (1) {
        USARTReceiveString(buffer, sizeof(buffer));
     934:	c8 01       	movw	r24, r16
     936:	64 e1       	ldi	r22, 0x14	; 20
     938:	0e 94 60 02 	call	0x4c0	; 0x4c0 <USARTReceiveString>
        sprintf(outBuffer, "> %s", buffer);
     93c:	00 d0       	rcall	.+0      	; 0x93e <main+0xa8>
     93e:	00 d0       	rcall	.+0      	; 0x940 <main+0xaa>
     940:	00 d0       	rcall	.+0      	; 0x942 <main+0xac>
     942:	ed b7       	in	r30, 0x3d	; 61
     944:	fe b7       	in	r31, 0x3e	; 62
     946:	31 96       	adiw	r30, 0x01	; 1
     948:	ad b7       	in	r26, 0x3d	; 61
     94a:	be b7       	in	r27, 0x3e	; 62
     94c:	12 96       	adiw	r26, 0x02	; 2
     94e:	fc 92       	st	X, r15
     950:	ee 92       	st	-X, r14
     952:	11 97       	sbiw	r26, 0x01	; 1
     954:	46 e9       	ldi	r20, 0x96	; 150
     956:	50 e0       	ldi	r21, 0x00	; 0
     958:	53 83       	std	Z+3, r21	; 0x03
     95a:	42 83       	std	Z+2, r20	; 0x02
     95c:	15 83       	std	Z+5, r17	; 0x05
     95e:	04 83       	std	Z+4, r16	; 0x04
     960:	0e 94 ff 07 	call	0xffe	; 0xffe <sprintf>
        USARTTransmitStringLn(outBuffer);
     964:	8d b7       	in	r24, 0x3d	; 61
     966:	9e b7       	in	r25, 0x3e	; 62
     968:	06 96       	adiw	r24, 0x06	; 6
     96a:	0f b6       	in	r0, 0x3f	; 63
     96c:	f8 94       	cli
     96e:	9e bf       	out	0x3e, r25	; 62
     970:	0f be       	out	0x3f, r0	; 63
     972:	8d bf       	out	0x3d, r24	; 61
     974:	c7 01       	movw	r24, r14
     976:	0e 94 40 02 	call	0x480	; 0x480 <USARTTransmitStringLn>

        if (strncmp(buffer, "print", 5) == 0) {
     97a:	c8 01       	movw	r24, r16
     97c:	6b e9       	ldi	r22, 0x9B	; 155
     97e:	70 e0       	ldi	r23, 0x00	; 0
     980:	45 e0       	ldi	r20, 0x05	; 5
     982:	50 e0       	ldi	r21, 0x00	; 0
     984:	0e 94 e9 07 	call	0xfd2	; 0xfd2 <strncmp>
     988:	00 97       	sbiw	r24, 0x00	; 0
     98a:	09 f0       	breq	.+2      	; 0x98e <main+0xf8>
     98c:	8a c0       	rjmp	.+276    	; 0xaa2 <main+0x20c>
            uint8_t n = 0;
            if (strlen(buffer) > 6) {
     98e:	f8 01       	movw	r30, r16
     990:	01 90       	ld	r0, Z+
     992:	00 20       	and	r0, r0
     994:	e9 f7       	brne	.-6      	; 0x990 <main+0xfa>
     996:	31 97       	sbiw	r30, 0x01	; 1
     998:	e0 1b       	sub	r30, r16
     99a:	f1 0b       	sbc	r31, r17
     99c:	e7 30       	cpi	r30, 0x07	; 7
     99e:	f1 05       	cpc	r31, r1
     9a0:	30 f0       	brcs	.+12     	; 0x9ae <main+0x118>
                n = atoi(&buffer[6]);
     9a2:	ce 01       	movw	r24, r28
     9a4:	47 96       	adiw	r24, 0x17	; 23
     9a6:	0e 94 c0 07 	call	0xf80	; 0xf80 <atoi>
     9aa:	88 2e       	mov	r8, r24
     9ac:	01 c0       	rjmp	.+2      	; 0x9b0 <main+0x11a>
        USARTReceiveString(buffer, sizeof(buffer));
        sprintf(outBuffer, "> %s", buffer);
        USARTTransmitStringLn(outBuffer);

        if (strncmp(buffer, "print", 5) == 0) {
            uint8_t n = 0;
     9ae:	88 24       	eor	r8, r8
            if (strlen(buffer) > 6) {
                n = atoi(&buffer[6]);
            }
            
            uint8_t index = 0;
            if (n > 0 && n < NUM_SLAVES) {
     9b0:	88 2d       	mov	r24, r8
     9b2:	81 50       	subi	r24, 0x01	; 1
     9b4:	8f 36       	cpi	r24, 0x6F	; 111
     9b6:	18 f4       	brcc	.+6      	; 0x9be <main+0x128>
                index = currentSlave;
     9b8:	90 90 f6 01 	lds	r9, 0x01F6
     9bc:	01 c0       	rjmp	.+2      	; 0x9c0 <main+0x12a>
            uint8_t n = 0;
            if (strlen(buffer) > 6) {
                n = atoi(&buffer[6]);
            }
            
            uint8_t index = 0;
     9be:	99 24       	eor	r9, r9
            }

            uint8_t printed = 0;
            for (uint8_t i = 0; i < NUM_SLAVES && (n == 0 || printed < n); i++) {
                toBinary(slaveAddresses[index], binaryAddress);
                const char *status = (slaveEnabled[index]) ? "Enabled" : "Disabled";
     9c0:	77 24       	eor	r7, r7
     9c2:	68 c0       	rjmp	.+208    	; 0xa94 <main+0x1fe>
                index = currentSlave;
            }

            uint8_t printed = 0;
            for (uint8_t i = 0; i < NUM_SLAVES && (n == 0 || printed < n); i++) {
                toBinary(slaveAddresses[index], binaryAddress);
     9c4:	c9 2c       	mov	r12, r9
     9c6:	dd 24       	eor	r13, r13
     9c8:	f6 01       	movw	r30, r12
     9ca:	e9 59       	subi	r30, 0x99	; 153
     9cc:	fd 4f       	sbci	r31, 0xFD	; 253
     9ce:	80 81       	ld	r24, Z
     9d0:	b2 01       	movw	r22, r4
     9d2:	0e 94 03 03 	call	0x606	; 0x606 <toBinary>
                const char *status = (slaveEnabled[index]) ? "Enabled" : "Disabled";
     9d6:	f6 01       	movw	r30, r12
     9d8:	e9 50       	subi	r30, 0x09	; 9
     9da:	fe 4f       	sbci	r31, 0xFE	; 254
     9dc:	80 81       	ld	r24, Z
     9de:	88 23       	and	r24, r24
     9e0:	19 f0       	breq	.+6      	; 0x9e8 <main+0x152>
     9e2:	25 e8       	ldi	r18, 0x85	; 133
     9e4:	30 e0       	ldi	r19, 0x00	; 0
     9e6:	02 c0       	rjmp	.+4      	; 0x9ec <main+0x156>
     9e8:	2d e8       	ldi	r18, 0x8D	; 141
     9ea:	30 e0       	ldi	r19, 0x00	; 0
                if (index == currentSlave) {
     9ec:	40 91 f6 01 	lds	r20, 0x01F6
     9f0:	b6 01       	movw	r22, r12
     9f2:	69 59       	subi	r22, 0x99	; 153
     9f4:	7d 4f       	sbci	r23, 0xFD	; 253
     9f6:	c6 01       	movw	r24, r12
     9f8:	01 96       	adiw	r24, 0x01	; 1
     9fa:	94 16       	cp	r9, r20
     9fc:	91 f4       	brne	.+36     	; 0xa22 <main+0x18c>
                    sprintf(outBuffer, "* Slave %3d: 0x%02X (Binary: %s) [%s]",
     9fe:	ad b7       	in	r26, 0x3d	; 61
     a00:	be b7       	in	r27, 0x3e	; 62
     a02:	1c 97       	sbiw	r26, 0x0c	; 12
     a04:	0f b6       	in	r0, 0x3f	; 63
     a06:	f8 94       	cli
     a08:	be bf       	out	0x3e, r27	; 62
     a0a:	0f be       	out	0x3f, r0	; 63
     a0c:	ad bf       	out	0x3d, r26	; 61
     a0e:	ed b7       	in	r30, 0x3d	; 61
     a10:	fe b7       	in	r31, 0x3e	; 62
     a12:	31 96       	adiw	r30, 0x01	; 1
     a14:	12 96       	adiw	r26, 0x02	; 2
     a16:	fc 92       	st	X, r15
     a18:	ee 92       	st	-X, r14
     a1a:	11 97       	sbiw	r26, 0x01	; 1
     a1c:	41 ea       	ldi	r20, 0xA1	; 161
     a1e:	50 e0       	ldi	r21, 0x00	; 0
     a20:	14 c0       	rjmp	.+40     	; 0xa4a <main+0x1b4>
                        index + 1, slaveAddresses[index], binaryAddress, status);
                }
                else {
                    sprintf(outBuffer, "Slave %3d: 0x%02X (Binary: %s) [%s]",
     a22:	4d b7       	in	r20, 0x3d	; 61
     a24:	5e b7       	in	r21, 0x3e	; 62
     a26:	4c 50       	subi	r20, 0x0C	; 12
     a28:	50 40       	sbci	r21, 0x00	; 0
     a2a:	0f b6       	in	r0, 0x3f	; 63
     a2c:	f8 94       	cli
     a2e:	5e bf       	out	0x3e, r21	; 62
     a30:	0f be       	out	0x3f, r0	; 63
     a32:	4d bf       	out	0x3d, r20	; 61
     a34:	ed b7       	in	r30, 0x3d	; 61
     a36:	fe b7       	in	r31, 0x3e	; 62
     a38:	31 96       	adiw	r30, 0x01	; 1
     a3a:	ad b7       	in	r26, 0x3d	; 61
     a3c:	be b7       	in	r27, 0x3e	; 62
     a3e:	12 96       	adiw	r26, 0x02	; 2
     a40:	fc 92       	st	X, r15
     a42:	ee 92       	st	-X, r14
     a44:	11 97       	sbiw	r26, 0x01	; 1
     a46:	47 ec       	ldi	r20, 0xC7	; 199
     a48:	50 e0       	ldi	r21, 0x00	; 0
     a4a:	53 83       	std	Z+3, r21	; 0x03
     a4c:	42 83       	std	Z+2, r20	; 0x02
     a4e:	95 83       	std	Z+5, r25	; 0x05
     a50:	84 83       	std	Z+4, r24	; 0x04
     a52:	db 01       	movw	r26, r22
     a54:	8c 91       	ld	r24, X
     a56:	86 83       	std	Z+6, r24	; 0x06
     a58:	17 82       	std	Z+7, r1	; 0x07
     a5a:	51 86       	std	Z+9, r5	; 0x09
     a5c:	40 86       	std	Z+8, r4	; 0x08
     a5e:	33 87       	std	Z+11, r19	; 0x0b
     a60:	22 87       	std	Z+10, r18	; 0x0a
     a62:	0e 94 ff 07 	call	0xffe	; 0xffe <sprintf>
     a66:	ed b7       	in	r30, 0x3d	; 61
     a68:	fe b7       	in	r31, 0x3e	; 62
     a6a:	3c 96       	adiw	r30, 0x0c	; 12
     a6c:	0f b6       	in	r0, 0x3f	; 63
     a6e:	f8 94       	cli
     a70:	fe bf       	out	0x3e, r31	; 62
     a72:	0f be       	out	0x3f, r0	; 63
     a74:	ed bf       	out	0x3d, r30	; 61
                        index + 1, slaveAddresses[index], binaryAddress, status);
                }
                USARTTransmitStringLn(outBuffer);
     a76:	c7 01       	movw	r24, r14
     a78:	0e 94 40 02 	call	0x480	; 0x480 <USARTTransmitStringLn>
            if (n > 0 && n < NUM_SLAVES) {
                index = currentSlave;
            }

            uint8_t printed = 0;
            for (uint8_t i = 0; i < NUM_SLAVES && (n == 0 || printed < n); i++) {
     a7c:	f7 2d       	mov	r31, r7
     a7e:	ff 36       	cpi	r31, 0x6F	; 111
     a80:	09 f4       	brne	.+2      	; 0xa84 <main+0x1ee>
     a82:	58 cf       	rjmp	.-336    	; 0x934 <main+0x9e>
                else {
                    sprintf(outBuffer, "Slave %3d: 0x%02X (Binary: %s) [%s]",
                        index + 1, slaveAddresses[index], binaryAddress, status);
                }
                USARTTransmitStringLn(outBuffer);
                printed++;
     a84:	73 94       	inc	r7
                index = (index + 1) % NUM_SLAVES;
     a86:	c6 01       	movw	r24, r12
     a88:	01 96       	adiw	r24, 0x01	; 1
     a8a:	60 e7       	ldi	r22, 0x70	; 112
     a8c:	70 e0       	ldi	r23, 0x00	; 0
     a8e:	0e 94 99 07 	call	0xf32	; 0xf32 <__divmodhi4>
     a92:	98 2e       	mov	r9, r24
            if (n > 0 && n < NUM_SLAVES) {
                index = currentSlave;
            }

            uint8_t printed = 0;
            for (uint8_t i = 0; i < NUM_SLAVES && (n == 0 || printed < n); i++) {
     a94:	88 20       	and	r8, r8
     a96:	09 f4       	brne	.+2      	; 0xa9a <main+0x204>
     a98:	95 cf       	rjmp	.-214    	; 0x9c4 <main+0x12e>
     a9a:	78 14       	cp	r7, r8
     a9c:	08 f4       	brcc	.+2      	; 0xaa0 <main+0x20a>
     a9e:	92 cf       	rjmp	.-220    	; 0x9c4 <main+0x12e>
     aa0:	49 cf       	rjmp	.-366    	; 0x934 <main+0x9e>
                }
                USARTTransmitStringLn(outBuffer);
                printed++;
                index = (index + 1) % NUM_SLAVES;
            }
        } else if (strncmp(buffer, "enable ", 7) == 0) {
     aa2:	c8 01       	movw	r24, r16
     aa4:	6b ee       	ldi	r22, 0xEB	; 235
     aa6:	70 e0       	ldi	r23, 0x00	; 0
     aa8:	47 e0       	ldi	r20, 0x07	; 7
     aaa:	50 e0       	ldi	r21, 0x00	; 0
     aac:	0e 94 e9 07 	call	0xfd2	; 0xfd2 <strncmp>
     ab0:	00 97       	sbiw	r24, 0x00	; 0
     ab2:	39 f4       	brne	.+14     	; 0xac2 <main+0x22c>
            uint8_t slaveNumber = atoi(&buffer[7]);
     ab4:	ce 01       	movw	r24, r28
     ab6:	48 96       	adiw	r24, 0x18	; 24
     ab8:	0e 94 c0 07 	call	0xf80	; 0xf80 <atoi>
            enableSlave(slaveNumber);
     abc:	0e 94 ad 03 	call	0x75a	; 0x75a <enableSlave>
     ac0:	39 cf       	rjmp	.-398    	; 0x934 <main+0x9e>
            // Если текущий был отключен, но теперь включен, ничего не делать, до след. сообщения.
        } else if (strncmp(buffer, "disable ", 8) == 0) {
     ac2:	c8 01       	movw	r24, r16
     ac4:	63 ef       	ldi	r22, 0xF3	; 243
     ac6:	70 e0       	ldi	r23, 0x00	; 0
     ac8:	48 e0       	ldi	r20, 0x08	; 8
     aca:	50 e0       	ldi	r21, 0x00	; 0
     acc:	0e 94 e9 07 	call	0xfd2	; 0xfd2 <strncmp>
     ad0:	00 97       	sbiw	r24, 0x00	; 0
     ad2:	59 f5       	brne	.+86     	; 0xb2a <main+0x294>
            uint8_t slaveNumber = atoi(&buffer[8]);
     ad4:	ce 01       	movw	r24, r28
     ad6:	49 96       	adiw	r24, 0x19	; 25
     ad8:	0e 94 c0 07 	call	0xf80	; 0xf80 <atoi>
            disableSlave(slaveNumber);
     adc:	0e 94 f5 03 	call	0x7ea	; 0x7ea <disableSlave>

            if (slaveEnabled[currentSlave] == 0) {
     ae0:	90 91 f6 01 	lds	r25, 0x01F6
     ae4:	e9 2f       	mov	r30, r25
     ae6:	f0 e0       	ldi	r31, 0x00	; 0
     ae8:	e9 50       	subi	r30, 0x09	; 9
     aea:	fe 4f       	sbci	r31, 0xFE	; 254
     aec:	80 81       	ld	r24, Z
     aee:	88 23       	and	r24, r24
     af0:	09 f0       	breq	.+2      	; 0xaf4 <main+0x25e>
     af2:	20 cf       	rjmp	.-448    	; 0x934 <main+0x9e>
     af4:	20 e0       	ldi	r18, 0x00	; 0
                uint8_t attempts = 0;
                do {
                    currentSlave = (currentSlave + 1) % NUM_SLAVES;
     af6:	30 e7       	ldi	r19, 0x70	; 112
     af8:	c3 2e       	mov	r12, r19
     afa:	d1 2c       	mov	r13, r1
     afc:	89 2f       	mov	r24, r25
     afe:	90 e0       	ldi	r25, 0x00	; 0
     b00:	01 96       	adiw	r24, 0x01	; 1
     b02:	b6 01       	movw	r22, r12
     b04:	0e 94 99 07 	call	0xf32	; 0xf32 <__divmodhi4>
     b08:	98 2f       	mov	r25, r24
                    attempts++;
     b0a:	2f 5f       	subi	r18, 0xFF	; 255
                    if (attempts >= NUM_SLAVES) {
     b0c:	20 37       	cpi	r18, 0x70	; 112
     b0e:	29 f4       	brne	.+10     	; 0xb1a <main+0x284>
     b10:	80 93 f6 01 	sts	0x01F6, r24
                        USARTTransmitStringLnP(str_err_no_active);
     b14:	8b ef       	ldi	r24, 0xFB	; 251
     b16:	90 e0       	ldi	r25, 0x00	; 0
     b18:	d2 c0       	rjmp	.+420    	; 0xcbe <main+0x428>
                        break;
                    }
                } while (slaveEnabled[currentSlave] == 0);
     b1a:	e8 2f       	mov	r30, r24
     b1c:	f0 e0       	ldi	r31, 0x00	; 0
     b1e:	e9 50       	subi	r30, 0x09	; 9
     b20:	fe 4f       	sbci	r31, 0xFE	; 254
     b22:	30 81       	ld	r19, Z
     b24:	33 23       	and	r19, r19
     b26:	51 f3       	breq	.-44     	; 0xafc <main+0x266>
     b28:	03 cf       	rjmp	.-506    	; 0x930 <main+0x9a>
            }
        } else if (strncmp(buffer, "current", 7) == 0) {
     b2a:	c8 01       	movw	r24, r16
     b2c:	6c ef       	ldi	r22, 0xFC	; 252
     b2e:	70 e0       	ldi	r23, 0x00	; 0
     b30:	47 e0       	ldi	r20, 0x07	; 7
     b32:	50 e0       	ldi	r21, 0x00	; 0
     b34:	0e 94 e9 07 	call	0xfd2	; 0xfd2 <strncmp>
     b38:	00 97       	sbiw	r24, 0x00	; 0
     b3a:	09 f0       	breq	.+2      	; 0xb3e <main+0x2a8>
     b3c:	42 c0       	rjmp	.+132    	; 0xbc2 <main+0x32c>
            if (slaveEnabled[currentSlave] == 1) {
     b3e:	80 91 f6 01 	lds	r24, 0x01F6
     b42:	90 e0       	ldi	r25, 0x00	; 0
     b44:	fc 01       	movw	r30, r24
     b46:	e9 50       	subi	r30, 0x09	; 9
     b48:	fe 4f       	sbci	r31, 0xFE	; 254
     b4a:	20 81       	ld	r18, Z
     b4c:	21 30       	cpi	r18, 0x01	; 1
     b4e:	b1 f5       	brne	.+108    	; 0xbbc <main+0x326>
                toBinary(slaveAddresses[currentSlave], binaryAddress);
     b50:	89 59       	subi	r24, 0x99	; 153
     b52:	9d 4f       	sbci	r25, 0xFD	; 253
     b54:	dc 01       	movw	r26, r24
     b56:	8c 91       	ld	r24, X
     b58:	b2 01       	movw	r22, r4
     b5a:	0e 94 03 03 	call	0x606	; 0x606 <toBinary>
                sprintf(outBuffer, "Current slave: Addr: 0x%02X (Binary: %s) [%s]",
     b5e:	ed b7       	in	r30, 0x3d	; 61
     b60:	fe b7       	in	r31, 0x3e	; 62
     b62:	3a 97       	sbiw	r30, 0x0a	; 10
     b64:	0f b6       	in	r0, 0x3f	; 63
     b66:	f8 94       	cli
     b68:	fe bf       	out	0x3e, r31	; 62
     b6a:	0f be       	out	0x3f, r0	; 63
     b6c:	ed bf       	out	0x3d, r30	; 61
     b6e:	31 96       	adiw	r30, 0x01	; 1
     b70:	ad b7       	in	r26, 0x3d	; 61
     b72:	be b7       	in	r27, 0x3e	; 62
     b74:	12 96       	adiw	r26, 0x02	; 2
     b76:	fc 92       	st	X, r15
     b78:	ee 92       	st	-X, r14
     b7a:	11 97       	sbiw	r26, 0x01	; 1
     b7c:	44 e0       	ldi	r20, 0x04	; 4
     b7e:	51 e0       	ldi	r21, 0x01	; 1
     b80:	53 83       	std	Z+3, r21	; 0x03
     b82:	42 83       	std	Z+2, r20	; 0x02
                        slaveAddresses[currentSlave], binaryAddress, "Enabled");
     b84:	a0 91 f6 01 	lds	r26, 0x01F6
     b88:	b0 e0       	ldi	r27, 0x00	; 0
     b8a:	a9 59       	subi	r26, 0x99	; 153
     b8c:	bd 4f       	sbci	r27, 0xFD	; 253
                } while (slaveEnabled[currentSlave] == 0);
            }
        } else if (strncmp(buffer, "current", 7) == 0) {
            if (slaveEnabled[currentSlave] == 1) {
                toBinary(slaveAddresses[currentSlave], binaryAddress);
                sprintf(outBuffer, "Current slave: Addr: 0x%02X (Binary: %s) [%s]",
     b8e:	8c 91       	ld	r24, X
     b90:	84 83       	std	Z+4, r24	; 0x04
     b92:	15 82       	std	Z+5, r1	; 0x05
     b94:	57 82       	std	Z+7, r5	; 0x07
     b96:	46 82       	std	Z+6, r4	; 0x06
     b98:	85 e8       	ldi	r24, 0x85	; 133
     b9a:	90 e0       	ldi	r25, 0x00	; 0
     b9c:	91 87       	std	Z+9, r25	; 0x09
     b9e:	80 87       	std	Z+8, r24	; 0x08
     ba0:	0e 94 ff 07 	call	0xffe	; 0xffe <sprintf>
                        slaveAddresses[currentSlave], binaryAddress, "Enabled");
                USARTTransmitStringLn(outBuffer);
     ba4:	ad b7       	in	r26, 0x3d	; 61
     ba6:	be b7       	in	r27, 0x3e	; 62
     ba8:	1a 96       	adiw	r26, 0x0a	; 10
     baa:	0f b6       	in	r0, 0x3f	; 63
     bac:	f8 94       	cli
     bae:	be bf       	out	0x3e, r27	; 62
     bb0:	0f be       	out	0x3f, r0	; 63
     bb2:	ad bf       	out	0x3d, r26	; 61
     bb4:	c7 01       	movw	r24, r14
     bb6:	0e 94 40 02 	call	0x480	; 0x480 <USARTTransmitStringLn>
     bba:	bc ce       	rjmp	.-648    	; 0x934 <main+0x9e>
            } else {
                USARTTransmitStringLnP(str_err_current_disable);
     bbc:	8d e1       	ldi	r24, 0x1D	; 29
     bbe:	91 e0       	ldi	r25, 0x01	; 1
     bc0:	7e c0       	rjmp	.+252    	; 0xcbe <main+0x428>
            }
        } else if (strncmp(buffer, "save", 4) == 0) {
     bc2:	c8 01       	movw	r24, r16
     bc4:	62 e3       	ldi	r22, 0x32	; 50
     bc6:	71 e0       	ldi	r23, 0x01	; 1
     bc8:	44 e0       	ldi	r20, 0x04	; 4
     bca:	50 e0       	ldi	r21, 0x00	; 0
     bcc:	0e 94 e9 07 	call	0xfd2	; 0xfd2 <strncmp>
     bd0:	00 97       	sbiw	r24, 0x00	; 0
     bd2:	19 f4       	brne	.+6      	; 0xbda <main+0x344>
            saveDataToEEPROM();
     bd4:	0e 94 1d 03 	call	0x63a	; 0x63a <saveDataToEEPROM>
     bd8:	ad ce       	rjmp	.-678    	; 0x934 <main+0x9e>
        } else if (strncmp(buffer, "clear", 5) == 0) {
     bda:	c8 01       	movw	r24, r16
     bdc:	67 e3       	ldi	r22, 0x37	; 55
     bde:	71 e0       	ldi	r23, 0x01	; 1
     be0:	45 e0       	ldi	r20, 0x05	; 5
     be2:	50 e0       	ldi	r21, 0x00	; 0
     be4:	0e 94 e9 07 	call	0xfd2	; 0xfd2 <strncmp>
     be8:	00 97       	sbiw	r24, 0x00	; 0
     bea:	91 f4       	brne	.+36     	; 0xc10 <main+0x37a>
     bec:	cc 24       	eor	r12, r12
     bee:	dd 24       	eor	r13, r13
            // Очищаем сигнатуру в EEPROM
            for (uint8_t i = 0; i < 4; i++) {
                eeprom_update_byte(&eeSignature[i], 0xFF);
     bf0:	c6 01       	movw	r24, r12
     bf2:	80 50       	subi	r24, 0x00	; 0
     bf4:	90 40       	sbci	r25, 0x00	; 0
     bf6:	6f ef       	ldi	r22, 0xFF	; 255
     bf8:	0e 94 11 0a 	call	0x1422	; 0x1422 <__eeupd_byte_m16>
     bfc:	08 94       	sec
     bfe:	c1 1c       	adc	r12, r1
     c00:	d1 1c       	adc	r13, r1
            }
        } else if (strncmp(buffer, "save", 4) == 0) {
            saveDataToEEPROM();
        } else if (strncmp(buffer, "clear", 5) == 0) {
            // Очищаем сигнатуру в EEPROM
            for (uint8_t i = 0; i < 4; i++) {
     c02:	b4 e0       	ldi	r27, 0x04	; 4
     c04:	cb 16       	cp	r12, r27
     c06:	d1 04       	cpc	r13, r1
     c08:	99 f7       	brne	.-26     	; 0xbf0 <main+0x35a>
                eeprom_update_byte(&eeSignature[i], 0xFF);
            }

            USARTTransmitStringLnP(str_data_clear);
     c0a:	80 e9       	ldi	r24, 0x90	; 144
     c0c:	90 e0       	ldi	r25, 0x00	; 0
     c0e:	57 c0       	rjmp	.+174    	; 0xcbe <main+0x428>
        } else if (strncmp(buffer, "reset", 5) == 0) {
     c10:	c8 01       	movw	r24, r16
     c12:	6d e3       	ldi	r22, 0x3D	; 61
     c14:	71 e0       	ldi	r23, 0x01	; 1
     c16:	45 e0       	ldi	r20, 0x05	; 5
     c18:	50 e0       	ldi	r21, 0x00	; 0
     c1a:	0e 94 e9 07 	call	0xfd2	; 0xfd2 <strncmp>
     c1e:	00 97       	sbiw	r24, 0x00	; 0
     c20:	59 f4       	brne	.+22     	; 0xc38 <main+0x3a2>
            USARTTransmitStringLnP(str_reset);
     c22:	88 ec       	ldi	r24, 0xC8	; 200
     c24:	90 e0       	ldi	r25, 0x00	; 0
     c26:	0e 94 57 02 	call	0x4ae	; 0x4ae <USARTTransmitStringLnP>
            USARTTransmitStringLn("");
     c2a:	83 e4       	ldi	r24, 0x43	; 67
     c2c:	91 e0       	ldi	r25, 0x01	; 1
     c2e:	0e 94 40 02 	call	0x480	; 0x480 <USARTTransmitStringLn>

            softwareReset();
     c32:	0e 94 3c 04 	call	0x878	; 0x878 <softwareReset>
     c36:	7e ce       	rjmp	.-772    	; 0x934 <main+0x9e>
        } else if (strncmp(buffer, "help", 4) == 0) {
     c38:	c8 01       	movw	r24, r16
     c3a:	64 e4       	ldi	r22, 0x44	; 68
     c3c:	71 e0       	ldi	r23, 0x01	; 1
     c3e:	44 e0       	ldi	r20, 0x04	; 4
     c40:	50 e0       	ldi	r21, 0x00	; 0
     c42:	0e 94 e9 07 	call	0xfd2	; 0xfd2 <strncmp>
     c46:	00 97       	sbiw	r24, 0x00	; 0
     c48:	e9 f5       	brne	.+122    	; 0xcc4 <main+0x42e>
            USARTTransmitStringLnP(str_help_header);
     c4a:	8e e3       	ldi	r24, 0x3E	; 62
     c4c:	91 e0       	ldi	r25, 0x01	; 1
     c4e:	0e 94 57 02 	call	0x4ae	; 0x4ae <USARTTransmitStringLnP>
            USARTTransmitStringLnP(str_help_print1);
     c52:	82 e5       	ldi	r24, 0x52	; 82
     c54:	91 e0       	ldi	r25, 0x01	; 1
     c56:	0e 94 57 02 	call	0x4ae	; 0x4ae <USARTTransmitStringLnP>
            USARTTransmitStringLnP(str_help_print2);
     c5a:	80 ea       	ldi	r24, 0xA0	; 160
     c5c:	91 e0       	ldi	r25, 0x01	; 1
     c5e:	0e 94 57 02 	call	0x4ae	; 0x4ae <USARTTransmitStringLnP>
            USARTTransmitStringLnP(str_help_enable);
     c62:	89 ed       	ldi	r24, 0xD9	; 217
     c64:	91 e0       	ldi	r25, 0x01	; 1
     c66:	0e 94 57 02 	call	0x4ae	; 0x4ae <USARTTransmitStringLnP>
            USARTTransmitStringLnP(str_help_disable);
     c6a:	87 e0       	ldi	r24, 0x07	; 7
     c6c:	92 e0       	ldi	r25, 0x02	; 2
     c6e:	0e 94 57 02 	call	0x4ae	; 0x4ae <USARTTransmitStringLnP>
            USARTTransmitStringLnP(str_help_current);
     c72:	86 e3       	ldi	r24, 0x36	; 54
     c74:	92 e0       	ldi	r25, 0x02	; 2
     c76:	0e 94 57 02 	call	0x4ae	; 0x4ae <USARTTransmitStringLnP>
            USARTTransmitStringLnP(str_help_save);
     c7a:	80 e7       	ldi	r24, 0x70	; 112
     c7c:	92 e0       	ldi	r25, 0x02	; 2
     c7e:	0e 94 57 02 	call	0x4ae	; 0x4ae <USARTTransmitStringLnP>
            USARTTransmitStringLnP(str_help_clear);
     c82:	83 ea       	ldi	r24, 0xA3	; 163
     c84:	92 e0       	ldi	r25, 0x02	; 2
     c86:	0e 94 57 02 	call	0x4ae	; 0x4ae <USARTTransmitStringLnP>
            USARTTransmitStringLnP(str_help_reset);
     c8a:	83 ee       	ldi	r24, 0xE3	; 227
     c8c:	92 e0       	ldi	r25, 0x02	; 2
     c8e:	0e 94 57 02 	call	0x4ae	; 0x4ae <USARTTransmitStringLnP>
            USARTTransmitStringLnP(str_help_help);
     c92:	84 e2       	ldi	r24, 0x24	; 36
     c94:	93 e0       	ldi	r25, 0x03	; 3
     c96:	0e 94 57 02 	call	0x4ae	; 0x4ae <USARTTransmitStringLnP>
            USARTTransmitStringLn("");
     c9a:	83 e4       	ldi	r24, 0x43	; 67
     c9c:	91 e0       	ldi	r25, 0x01	; 1
     c9e:	0e 94 40 02 	call	0x480	; 0x480 <USARTTransmitStringLn>
            USARTTransmitStringLnP(str_help_note);
     ca2:	81 e5       	ldi	r24, 0x51	; 81
     ca4:	93 e0       	ldi	r25, 0x03	; 3
     ca6:	0e 94 57 02 	call	0x4ae	; 0x4ae <USARTTransmitStringLnP>
            USARTTransmitStringLnP(str_help_note2);
     caa:	87 e5       	ldi	r24, 0x57	; 87
     cac:	93 e0       	ldi	r25, 0x03	; 3
     cae:	0e 94 57 02 	call	0x4ae	; 0x4ae <USARTTransmitStringLnP>
            USARTTransmitStringLnP(str_help_note3);
     cb2:	88 e9       	ldi	r24, 0x98	; 152
     cb4:	93 e0       	ldi	r25, 0x03	; 3
     cb6:	0e 94 57 02 	call	0x4ae	; 0x4ae <USARTTransmitStringLnP>
            USARTTransmitStringLnP(str_help_note4);
     cba:	88 ed       	ldi	r24, 0xD8	; 216
     cbc:	93 e0       	ldi	r25, 0x03	; 3
     cbe:	0e 94 57 02 	call	0x4ae	; 0x4ae <USARTTransmitStringLnP>
     cc2:	38 ce       	rjmp	.-912    	; 0x934 <main+0x9e>
        } else {
            sprintf(outBuffer, "You sent: %s. It was sent to Addr: 0x%02X", buffer, slaveAddresses[currentSlave]);
     cc4:	ed b7       	in	r30, 0x3d	; 61
     cc6:	fe b7       	in	r31, 0x3e	; 62
     cc8:	38 97       	sbiw	r30, 0x08	; 8
     cca:	0f b6       	in	r0, 0x3f	; 63
     ccc:	f8 94       	cli
     cce:	fe bf       	out	0x3e, r31	; 62
     cd0:	0f be       	out	0x3f, r0	; 63
     cd2:	ed bf       	out	0x3d, r30	; 61
     cd4:	31 96       	adiw	r30, 0x01	; 1
     cd6:	ad b7       	in	r26, 0x3d	; 61
     cd8:	be b7       	in	r27, 0x3e	; 62
     cda:	12 96       	adiw	r26, 0x02	; 2
     cdc:	fc 92       	st	X, r15
     cde:	ee 92       	st	-X, r14
     ce0:	11 97       	sbiw	r26, 0x01	; 1
     ce2:	49 e4       	ldi	r20, 0x49	; 73
     ce4:	51 e0       	ldi	r21, 0x01	; 1
     ce6:	53 83       	std	Z+3, r21	; 0x03
     ce8:	42 83       	std	Z+2, r20	; 0x02
     cea:	15 83       	std	Z+5, r17	; 0x05
     cec:	04 83       	std	Z+4, r16	; 0x04
     cee:	a0 91 f6 01 	lds	r26, 0x01F6
     cf2:	b0 e0       	ldi	r27, 0x00	; 0
     cf4:	a9 59       	subi	r26, 0x99	; 153
     cf6:	bd 4f       	sbci	r27, 0xFD	; 253
     cf8:	8c 91       	ld	r24, X
     cfa:	86 83       	std	Z+6, r24	; 0x06
     cfc:	17 82       	std	Z+7, r1	; 0x07
     cfe:	0e 94 ff 07 	call	0xffe	; 0xffe <sprintf>
            USARTTransmitStringLn(outBuffer);
     d02:	8d b7       	in	r24, 0x3d	; 61
     d04:	9e b7       	in	r25, 0x3e	; 62
     d06:	08 96       	adiw	r24, 0x08	; 8
     d08:	0f b6       	in	r0, 0x3f	; 63
     d0a:	f8 94       	cli
     d0c:	9e bf       	out	0x3e, r25	; 62
     d0e:	0f be       	out	0x3f, r0	; 63
     d10:	8d bf       	out	0x3d, r24	; 61
     d12:	c7 01       	movw	r24, r14
     d14:	0e 94 40 02 	call	0x480	; 0x480 <USARTTransmitStringLn>

            LCD_Clear();
     d18:	0e 94 ce 02 	call	0x59c	; 0x59c <LCD_Clear>
            LCD_SetCursor(1, 1);
     d1c:	81 e0       	ldi	r24, 0x01	; 1
     d1e:	61 e0       	ldi	r22, 0x01	; 1
     d20:	0e 94 d8 02 	call	0x5b0	; 0x5b0 <LCD_SetCursor>
            sprintf(displayBuffer, "Addr: 0x%02X", slaveAddresses[currentSlave]);
     d24:	00 d0       	rcall	.+0      	; 0xd26 <main+0x490>
     d26:	00 d0       	rcall	.+0      	; 0xd28 <main+0x492>
     d28:	00 d0       	rcall	.+0      	; 0xd2a <main+0x494>
     d2a:	ad b7       	in	r26, 0x3d	; 61
     d2c:	be b7       	in	r27, 0x3e	; 62
     d2e:	11 96       	adiw	r26, 0x01	; 1
     d30:	95 e2       	ldi	r25, 0x25	; 37
     d32:	c9 2e       	mov	r12, r25
     d34:	d1 2c       	mov	r13, r1
     d36:	cc 0e       	add	r12, r28
     d38:	dd 1e       	adc	r13, r29
     d3a:	ed b7       	in	r30, 0x3d	; 61
     d3c:	fe b7       	in	r31, 0x3e	; 62
     d3e:	d2 82       	std	Z+2, r13	; 0x02
     d40:	c1 82       	std	Z+1, r12	; 0x01
     d42:	43 e7       	ldi	r20, 0x73	; 115
     d44:	51 e0       	ldi	r21, 0x01	; 1
     d46:	13 96       	adiw	r26, 0x03	; 3
     d48:	5c 93       	st	X, r21
     d4a:	4e 93       	st	-X, r20
     d4c:	12 97       	sbiw	r26, 0x02	; 2
     d4e:	e0 91 f6 01 	lds	r30, 0x01F6
     d52:	f0 e0       	ldi	r31, 0x00	; 0
     d54:	e9 59       	subi	r30, 0x99	; 153
     d56:	fd 4f       	sbci	r31, 0xFD	; 253
     d58:	80 81       	ld	r24, Z
     d5a:	14 96       	adiw	r26, 0x04	; 4
     d5c:	8c 93       	st	X, r24
     d5e:	14 97       	sbiw	r26, 0x04	; 4
     d60:	15 96       	adiw	r26, 0x05	; 5
     d62:	1c 92       	st	X, r1
     d64:	0e 94 ff 07 	call	0xffe	; 0xffe <sprintf>
            LCD_String(displayBuffer);
     d68:	8d b7       	in	r24, 0x3d	; 61
     d6a:	9e b7       	in	r25, 0x3e	; 62
     d6c:	06 96       	adiw	r24, 0x06	; 6
     d6e:	0f b6       	in	r0, 0x3f	; 63
     d70:	f8 94       	cli
     d72:	9e bf       	out	0x3e, r25	; 62
     d74:	0f be       	out	0x3f, r0	; 63
     d76:	8d bf       	out	0x3d, r24	; 61
     d78:	c6 01       	movw	r24, r12
     d7a:	0e 94 e2 02 	call	0x5c4	; 0x5c4 <LCD_String>

            LCD_SetCursor(2, 1);
     d7e:	82 e0       	ldi	r24, 0x02	; 2
     d80:	61 e0       	ldi	r22, 0x01	; 1
     d82:	0e 94 d8 02 	call	0x5b0	; 0x5b0 <LCD_SetCursor>
            sprintf(displayBuffer, "Msg: %s", buffer);
     d86:	00 d0       	rcall	.+0      	; 0xd88 <main+0x4f2>
     d88:	00 d0       	rcall	.+0      	; 0xd8a <main+0x4f4>
     d8a:	00 d0       	rcall	.+0      	; 0xd8c <main+0x4f6>
     d8c:	ed b7       	in	r30, 0x3d	; 61
     d8e:	fe b7       	in	r31, 0x3e	; 62
     d90:	31 96       	adiw	r30, 0x01	; 1
     d92:	ad b7       	in	r26, 0x3d	; 61
     d94:	be b7       	in	r27, 0x3e	; 62
     d96:	12 96       	adiw	r26, 0x02	; 2
     d98:	dc 92       	st	X, r13
     d9a:	ce 92       	st	-X, r12
     d9c:	11 97       	sbiw	r26, 0x01	; 1
     d9e:	40 e8       	ldi	r20, 0x80	; 128
     da0:	51 e0       	ldi	r21, 0x01	; 1
     da2:	53 83       	std	Z+3, r21	; 0x03
     da4:	42 83       	std	Z+2, r20	; 0x02
     da6:	15 83       	std	Z+5, r17	; 0x05
     da8:	04 83       	std	Z+4, r16	; 0x04
     daa:	0e 94 ff 07 	call	0xffe	; 0xffe <sprintf>
            LCD_String(displayBuffer);
     dae:	8d b7       	in	r24, 0x3d	; 61
     db0:	9e b7       	in	r25, 0x3e	; 62
     db2:	06 96       	adiw	r24, 0x06	; 6
     db4:	0f b6       	in	r0, 0x3f	; 63
     db6:	f8 94       	cli
     db8:	9e bf       	out	0x3e, r25	; 62
     dba:	0f be       	out	0x3f, r0	; 63
     dbc:	8d bf       	out	0x3d, r24	; 61
     dbe:	c6 01       	movw	r24, r12
     dc0:	0e 94 e2 02 	call	0x5c4	; 0x5c4 <LCD_String>

            LCD_SetCursor(3, 1);
     dc4:	83 e0       	ldi	r24, 0x03	; 3
     dc6:	61 e0       	ldi	r22, 0x01	; 1
     dc8:	0e 94 d8 02 	call	0x5b0	; 0x5b0 <LCD_SetCursor>
            uint8_t transformedAddress = (slaveAddresses[currentSlave] << 1) | TW_WRITE;
     dcc:	e0 91 f6 01 	lds	r30, 0x01F6
     dd0:	f0 e0       	ldi	r31, 0x00	; 0
     dd2:	e9 59       	subi	r30, 0x99	; 153
     dd4:	fd 4f       	sbci	r31, 0xFD	; 253
     dd6:	90 80       	ld	r9, Z
     dd8:	99 0c       	add	r9, r9
            sprintf(displayBuffer, "I2C Addr: 0x%02X", transformedAddress);
     dda:	00 d0       	rcall	.+0      	; 0xddc <main+0x546>
     ddc:	00 d0       	rcall	.+0      	; 0xdde <main+0x548>
     dde:	00 d0       	rcall	.+0      	; 0xde0 <main+0x54a>
     de0:	ed b7       	in	r30, 0x3d	; 61
     de2:	fe b7       	in	r31, 0x3e	; 62
     de4:	31 96       	adiw	r30, 0x01	; 1
     de6:	ad b7       	in	r26, 0x3d	; 61
     de8:	be b7       	in	r27, 0x3e	; 62
     dea:	12 96       	adiw	r26, 0x02	; 2
     dec:	dc 92       	st	X, r13
     dee:	ce 92       	st	-X, r12
     df0:	11 97       	sbiw	r26, 0x01	; 1
     df2:	48 e8       	ldi	r20, 0x88	; 136
     df4:	51 e0       	ldi	r21, 0x01	; 1
     df6:	53 83       	std	Z+3, r21	; 0x03
     df8:	42 83       	std	Z+2, r20	; 0x02
     dfa:	94 82       	std	Z+4, r9	; 0x04
     dfc:	15 82       	std	Z+5, r1	; 0x05
     dfe:	0e 94 ff 07 	call	0xffe	; 0xffe <sprintf>
            LCD_String(displayBuffer);
     e02:	8d b7       	in	r24, 0x3d	; 61
     e04:	9e b7       	in	r25, 0x3e	; 62
     e06:	06 96       	adiw	r24, 0x06	; 6
     e08:	0f b6       	in	r0, 0x3f	; 63
     e0a:	f8 94       	cli
     e0c:	9e bf       	out	0x3e, r25	; 62
     e0e:	0f be       	out	0x3f, r0	; 63
     e10:	8d bf       	out	0x3d, r24	; 61
     e12:	c6 01       	movw	r24, r12
     e14:	0e 94 e2 02 	call	0x5c4	; 0x5c4 <LCD_String>

            TWIStart();
     e18:	0e 94 7f 02 	call	0x4fe	; 0x4fe <TWIStart>
            TWIWrite(transformedAddress);
     e1c:	89 2d       	mov	r24, r9
     e1e:	0e 94 8b 02 	call	0x516	; 0x516 <TWIWrite>

            LCD_SetCursor(4, 1);
     e22:	84 e0       	ldi	r24, 0x04	; 4
     e24:	61 e0       	ldi	r22, 0x01	; 1
     e26:	0e 94 d8 02 	call	0x5b0	; 0x5b0 <LCD_SetCursor>
            char i2cMessage[80] = "I2C Msg:";
     e2a:	d5 01       	movw	r26, r10
     e2c:	e1 ea       	ldi	r30, 0xA1	; 161
     e2e:	f1 e0       	ldi	r31, 0x01	; 1
     e30:	89 e0       	ldi	r24, 0x09	; 9
     e32:	01 90       	ld	r0, Z+
     e34:	0d 92       	st	X+, r0
     e36:	81 50       	subi	r24, 0x01	; 1
     e38:	e1 f7       	brne	.-8      	; 0xe32 <main+0x59c>
     e3a:	87 e4       	ldi	r24, 0x47	; 71
     e3c:	c4 54       	subi	r28, 0x44	; 68
     e3e:	df 4f       	sbci	r29, 0xFF	; 255
     e40:	a8 81       	ld	r26, Y
     e42:	b9 81       	ldd	r27, Y+1	; 0x01
     e44:	cc 5b       	subi	r28, 0xBC	; 188
     e46:	d0 40       	sbci	r29, 0x00	; 0
     e48:	1d 92       	st	X+, r1
     e4a:	8a 95       	dec	r24
     e4c:	e9 f7       	brne	.-6      	; 0xe48 <main+0x5b2>
            uint8_t i = 0;
     e4e:	cc 24       	eor	r12, r12
            while (buffer[i]) {
     e50:	39 c0       	rjmp	.+114    	; 0xec4 <main+0x62e>
                TWIWrite(buffer[i]);
     e52:	0e 94 8b 02 	call	0x516	; 0x516 <TWIWrite>

                char temp[7];
                sprintf(temp, " 0x%02X", buffer[i]);
     e56:	00 d0       	rcall	.+0      	; 0xe58 <main+0x5c2>
     e58:	00 d0       	rcall	.+0      	; 0xe5a <main+0x5c4>
     e5a:	00 d0       	rcall	.+0      	; 0xe5c <main+0x5c6>
     e5c:	ed b7       	in	r30, 0x3d	; 61
     e5e:	fe b7       	in	r31, 0x3e	; 62
     e60:	31 96       	adiw	r30, 0x01	; 1
     e62:	ad b7       	in	r26, 0x3d	; 61
     e64:	be b7       	in	r27, 0x3e	; 62
     e66:	12 96       	adiw	r26, 0x02	; 2
     e68:	3c 92       	st	X, r3
     e6a:	2e 92       	st	-X, r2
     e6c:	11 97       	sbiw	r26, 0x01	; 1
     e6e:	49 e9       	ldi	r20, 0x99	; 153
     e70:	51 e0       	ldi	r21, 0x01	; 1
     e72:	53 83       	std	Z+3, r21	; 0x03
     e74:	42 83       	std	Z+2, r20	; 0x02
     e76:	d4 01       	movw	r26, r8
     e78:	8c 91       	ld	r24, X
     e7a:	84 83       	std	Z+4, r24	; 0x04
     e7c:	15 82       	std	Z+5, r1	; 0x05
     e7e:	0e 94 ff 07 	call	0xffe	; 0xffe <sprintf>
                if ((strlen(i2cMessage) + strlen(temp)) < sizeof(i2cMessage)) {
     e82:	d5 01       	movw	r26, r10
     e84:	0d 90       	ld	r0, X+
     e86:	00 20       	and	r0, r0
     e88:	e9 f7       	brne	.-6      	; 0xe84 <main+0x5ee>
     e8a:	11 97       	sbiw	r26, 0x01	; 1
     e8c:	aa 19       	sub	r26, r10
     e8e:	bb 09       	sbc	r27, r11
     e90:	f1 01       	movw	r30, r2
     e92:	01 90       	ld	r0, Z+
     e94:	00 20       	and	r0, r0
     e96:	e9 f7       	brne	.-6      	; 0xe92 <main+0x5fc>
     e98:	31 97       	sbiw	r30, 0x01	; 1
     e9a:	e2 19       	sub	r30, r2
     e9c:	f3 09       	sbc	r31, r3
     e9e:	ea 0f       	add	r30, r26
     ea0:	fb 1f       	adc	r31, r27
     ea2:	4d b7       	in	r20, 0x3d	; 61
     ea4:	5e b7       	in	r21, 0x3e	; 62
     ea6:	4a 5f       	subi	r20, 0xFA	; 250
     ea8:	5f 4f       	sbci	r21, 0xFF	; 255
     eaa:	0f b6       	in	r0, 0x3f	; 63
     eac:	f8 94       	cli
     eae:	5e bf       	out	0x3e, r21	; 62
     eb0:	0f be       	out	0x3f, r0	; 63
     eb2:	4d bf       	out	0x3d, r20	; 61
     eb4:	e0 35       	cpi	r30, 0x50	; 80
     eb6:	f1 05       	cpc	r31, r1
     eb8:	68 f4       	brcc	.+26     	; 0xed4 <main+0x63e>
                    strcat(i2cMessage, temp);
     eba:	c5 01       	movw	r24, r10
     ebc:	b1 01       	movw	r22, r2
     ebe:	0e 94 de 07 	call	0xfbc	; 0xfbc <strcat>
                } else {
                    break;
                }
                i++;
     ec2:	c3 94       	inc	r12
            TWIWrite(transformedAddress);

            LCD_SetCursor(4, 1);
            char i2cMessage[80] = "I2C Msg:";
            uint8_t i = 0;
            while (buffer[i]) {
     ec4:	48 01       	movw	r8, r16
     ec6:	8c 0c       	add	r8, r12
     ec8:	91 1c       	adc	r9, r1
     eca:	d4 01       	movw	r26, r8
     ecc:	8c 91       	ld	r24, X
     ece:	88 23       	and	r24, r24
     ed0:	09 f0       	breq	.+2      	; 0xed4 <main+0x63e>
     ed2:	bf cf       	rjmp	.-130    	; 0xe52 <main+0x5bc>
                    break;
                }
                i++;
            }

            LCD_String(i2cMessage);
     ed4:	c5 01       	movw	r24, r10
     ed6:	0e 94 e2 02 	call	0x5c4	; 0x5c4 <LCD_String>

            TWIStop();
     eda:	0e 94 85 02 	call	0x50a	; 0x50a <TWIStop>
     ede:	90 91 f6 01 	lds	r25, 0x01F6

            uint8_t attempts = 0;
     ee2:	20 e0       	ldi	r18, 0x00	; 0
            do {
                currentSlave = (currentSlave + 1) % NUM_SLAVES;
     ee4:	80 e7       	ldi	r24, 0x70	; 112
     ee6:	c8 2e       	mov	r12, r24
     ee8:	d1 2c       	mov	r13, r1
     eea:	89 2f       	mov	r24, r25
     eec:	90 e0       	ldi	r25, 0x00	; 0
     eee:	01 96       	adiw	r24, 0x01	; 1
     ef0:	b6 01       	movw	r22, r12
     ef2:	0e 94 99 07 	call	0xf32	; 0xf32 <__divmodhi4>
     ef6:	98 2f       	mov	r25, r24
                attempts++;
     ef8:	2f 5f       	subi	r18, 0xFF	; 255
                if (attempts >= NUM_SLAVES) {
     efa:	20 37       	cpi	r18, 0x70	; 112
     efc:	39 f4       	brne	.+14     	; 0xf0c <main+0x676>
     efe:	80 93 f6 01 	sts	0x01F6, r24
                    USARTTransmitStringLnP(str_err_no_active);
     f02:	8b ef       	ldi	r24, 0xFB	; 251
     f04:	90 e0       	ldi	r25, 0x00	; 0
     f06:	0e 94 57 02 	call	0x4ae	; 0x4ae <USARTTransmitStringLnP>
                    break;
     f0a:	09 c0       	rjmp	.+18     	; 0xf1e <main+0x688>
                }
            } while (slaveEnabled[currentSlave] == 0);
     f0c:	e8 2f       	mov	r30, r24
     f0e:	f0 e0       	ldi	r31, 0x00	; 0
     f10:	e9 50       	subi	r30, 0x09	; 9
     f12:	fe 4f       	sbci	r31, 0xFE	; 254
     f14:	30 81       	ld	r19, Z
     f16:	33 23       	and	r19, r19
     f18:	41 f3       	breq	.-48     	; 0xeea <main+0x654>
     f1a:	80 93 f6 01 	sts	0x01F6, r24
     f1e:	8f ef       	ldi	r24, 0xFF	; 255
     f20:	99 e6       	ldi	r25, 0x69	; 105
     f22:	a8 e1       	ldi	r26, 0x18	; 24
     f24:	81 50       	subi	r24, 0x01	; 1
     f26:	90 40       	sbci	r25, 0x00	; 0
     f28:	a0 40       	sbci	r26, 0x00	; 0
     f2a:	e1 f7       	brne	.-8      	; 0xf24 <main+0x68e>
     f2c:	00 c0       	rjmp	.+0      	; 0xf2e <main+0x698>
     f2e:	00 00       	nop
     f30:	01 cd       	rjmp	.-1534   	; 0x934 <main+0x9e>

00000f32 <__divmodhi4>:
     f32:	97 fb       	bst	r25, 7
     f34:	09 2e       	mov	r0, r25
     f36:	07 26       	eor	r0, r23
     f38:	0a d0       	rcall	.+20     	; 0xf4e <__divmodhi4_neg1>
     f3a:	77 fd       	sbrc	r23, 7
     f3c:	04 d0       	rcall	.+8      	; 0xf46 <__divmodhi4_neg2>
     f3e:	0c d0       	rcall	.+24     	; 0xf58 <__udivmodhi4>
     f40:	06 d0       	rcall	.+12     	; 0xf4e <__divmodhi4_neg1>
     f42:	00 20       	and	r0, r0
     f44:	1a f4       	brpl	.+6      	; 0xf4c <__divmodhi4_exit>

00000f46 <__divmodhi4_neg2>:
     f46:	70 95       	com	r23
     f48:	61 95       	neg	r22
     f4a:	7f 4f       	sbci	r23, 0xFF	; 255

00000f4c <__divmodhi4_exit>:
     f4c:	08 95       	ret

00000f4e <__divmodhi4_neg1>:
     f4e:	f6 f7       	brtc	.-4      	; 0xf4c <__divmodhi4_exit>
     f50:	90 95       	com	r25
     f52:	81 95       	neg	r24
     f54:	9f 4f       	sbci	r25, 0xFF	; 255
     f56:	08 95       	ret

00000f58 <__udivmodhi4>:
     f58:	aa 1b       	sub	r26, r26
     f5a:	bb 1b       	sub	r27, r27
     f5c:	51 e1       	ldi	r21, 0x11	; 17
     f5e:	07 c0       	rjmp	.+14     	; 0xf6e <__udivmodhi4_ep>

00000f60 <__udivmodhi4_loop>:
     f60:	aa 1f       	adc	r26, r26
     f62:	bb 1f       	adc	r27, r27
     f64:	a6 17       	cp	r26, r22
     f66:	b7 07       	cpc	r27, r23
     f68:	10 f0       	brcs	.+4      	; 0xf6e <__udivmodhi4_ep>
     f6a:	a6 1b       	sub	r26, r22
     f6c:	b7 0b       	sbc	r27, r23

00000f6e <__udivmodhi4_ep>:
     f6e:	88 1f       	adc	r24, r24
     f70:	99 1f       	adc	r25, r25
     f72:	5a 95       	dec	r21
     f74:	a9 f7       	brne	.-22     	; 0xf60 <__udivmodhi4_loop>
     f76:	80 95       	com	r24
     f78:	90 95       	com	r25
     f7a:	bc 01       	movw	r22, r24
     f7c:	cd 01       	movw	r24, r26
     f7e:	08 95       	ret

00000f80 <atoi>:
     f80:	fc 01       	movw	r30, r24
     f82:	88 27       	eor	r24, r24
     f84:	99 27       	eor	r25, r25
     f86:	e8 94       	clt
     f88:	21 91       	ld	r18, Z+
     f8a:	20 32       	cpi	r18, 0x20	; 32
     f8c:	e9 f3       	breq	.-6      	; 0xf88 <atoi+0x8>
     f8e:	29 30       	cpi	r18, 0x09	; 9
     f90:	10 f0       	brcs	.+4      	; 0xf96 <atoi+0x16>
     f92:	2e 30       	cpi	r18, 0x0E	; 14
     f94:	c8 f3       	brcs	.-14     	; 0xf88 <atoi+0x8>
     f96:	2b 32       	cpi	r18, 0x2B	; 43
     f98:	41 f0       	breq	.+16     	; 0xfaa <atoi+0x2a>
     f9a:	2d 32       	cpi	r18, 0x2D	; 45
     f9c:	39 f4       	brne	.+14     	; 0xfac <atoi+0x2c>
     f9e:	68 94       	set
     fa0:	04 c0       	rjmp	.+8      	; 0xfaa <atoi+0x2a>
     fa2:	0e 94 f7 07 	call	0xfee	; 0xfee <__mulhi_const_10>
     fa6:	82 0f       	add	r24, r18
     fa8:	91 1d       	adc	r25, r1
     faa:	21 91       	ld	r18, Z+
     fac:	20 53       	subi	r18, 0x30	; 48
     fae:	2a 30       	cpi	r18, 0x0A	; 10
     fb0:	c0 f3       	brcs	.-16     	; 0xfa2 <atoi+0x22>
     fb2:	1e f4       	brtc	.+6      	; 0xfba <atoi+0x3a>
     fb4:	90 95       	com	r25
     fb6:	81 95       	neg	r24
     fb8:	9f 4f       	sbci	r25, 0xFF	; 255
     fba:	08 95       	ret

00000fbc <strcat>:
     fbc:	fb 01       	movw	r30, r22
     fbe:	dc 01       	movw	r26, r24
     fc0:	0d 90       	ld	r0, X+
     fc2:	00 20       	and	r0, r0
     fc4:	e9 f7       	brne	.-6      	; 0xfc0 <strcat+0x4>
     fc6:	11 97       	sbiw	r26, 0x01	; 1
     fc8:	01 90       	ld	r0, Z+
     fca:	0d 92       	st	X+, r0
     fcc:	00 20       	and	r0, r0
     fce:	e1 f7       	brne	.-8      	; 0xfc8 <strcat+0xc>
     fd0:	08 95       	ret

00000fd2 <strncmp>:
     fd2:	fb 01       	movw	r30, r22
     fd4:	dc 01       	movw	r26, r24
     fd6:	41 50       	subi	r20, 0x01	; 1
     fd8:	50 40       	sbci	r21, 0x00	; 0
     fda:	30 f0       	brcs	.+12     	; 0xfe8 <strncmp+0x16>
     fdc:	8d 91       	ld	r24, X+
     fde:	01 90       	ld	r0, Z+
     fe0:	80 19       	sub	r24, r0
     fe2:	19 f4       	brne	.+6      	; 0xfea <strncmp+0x18>
     fe4:	00 20       	and	r0, r0
     fe6:	b9 f7       	brne	.-18     	; 0xfd6 <strncmp+0x4>
     fe8:	88 1b       	sub	r24, r24
     fea:	99 0b       	sbc	r25, r25
     fec:	08 95       	ret

00000fee <__mulhi_const_10>:
     fee:	7a e0       	ldi	r23, 0x0A	; 10
     ff0:	97 9f       	mul	r25, r23
     ff2:	90 2d       	mov	r25, r0
     ff4:	87 9f       	mul	r24, r23
     ff6:	80 2d       	mov	r24, r0
     ff8:	91 0d       	add	r25, r1
     ffa:	11 24       	eor	r1, r1
     ffc:	08 95       	ret

00000ffe <sprintf>:
     ffe:	ae e0       	ldi	r26, 0x0E	; 14
    1000:	b0 e0       	ldi	r27, 0x00	; 0
    1002:	e5 e0       	ldi	r30, 0x05	; 5
    1004:	f8 e0       	ldi	r31, 0x08	; 8
    1006:	0c 94 d0 0a 	jmp	0x15a0	; 0x15a0 <__prologue_saves__+0x1c>
    100a:	0d 89       	ldd	r16, Y+21	; 0x15
    100c:	1e 89       	ldd	r17, Y+22	; 0x16
    100e:	86 e0       	ldi	r24, 0x06	; 6
    1010:	8c 83       	std	Y+4, r24	; 0x04
    1012:	1a 83       	std	Y+2, r17	; 0x02
    1014:	09 83       	std	Y+1, r16	; 0x01
    1016:	8f ef       	ldi	r24, 0xFF	; 255
    1018:	9f e7       	ldi	r25, 0x7F	; 127
    101a:	9e 83       	std	Y+6, r25	; 0x06
    101c:	8d 83       	std	Y+5, r24	; 0x05
    101e:	9e 01       	movw	r18, r28
    1020:	27 5e       	subi	r18, 0xE7	; 231
    1022:	3f 4f       	sbci	r19, 0xFF	; 255
    1024:	ce 01       	movw	r24, r28
    1026:	01 96       	adiw	r24, 0x01	; 1
    1028:	6f 89       	ldd	r22, Y+23	; 0x17
    102a:	78 8d       	ldd	r23, Y+24	; 0x18
    102c:	a9 01       	movw	r20, r18
    102e:	0e 94 22 08 	call	0x1044	; 0x1044 <vfprintf>
    1032:	ef 81       	ldd	r30, Y+7	; 0x07
    1034:	f8 85       	ldd	r31, Y+8	; 0x08
    1036:	e0 0f       	add	r30, r16
    1038:	f1 1f       	adc	r31, r17
    103a:	10 82       	st	Z, r1
    103c:	2e 96       	adiw	r28, 0x0e	; 14
    103e:	e4 e0       	ldi	r30, 0x04	; 4
    1040:	0c 94 ec 0a 	jmp	0x15d8	; 0x15d8 <__epilogue_restores__+0x1c>

00001044 <vfprintf>:
    1044:	ac e0       	ldi	r26, 0x0C	; 12
    1046:	b0 e0       	ldi	r27, 0x00	; 0
    1048:	e8 e2       	ldi	r30, 0x28	; 40
    104a:	f8 e0       	ldi	r31, 0x08	; 8
    104c:	0c 94 c2 0a 	jmp	0x1584	; 0x1584 <__prologue_saves__>
    1050:	6c 01       	movw	r12, r24
    1052:	1b 01       	movw	r2, r22
    1054:	8a 01       	movw	r16, r20
    1056:	fc 01       	movw	r30, r24
    1058:	17 82       	std	Z+7, r1	; 0x07
    105a:	16 82       	std	Z+6, r1	; 0x06
    105c:	83 81       	ldd	r24, Z+3	; 0x03
    105e:	81 ff       	sbrs	r24, 1
    1060:	d1 c1       	rjmp	.+930    	; 0x1404 <vfprintf+0x3c0>
    1062:	2e 01       	movw	r4, r28
    1064:	08 94       	sec
    1066:	41 1c       	adc	r4, r1
    1068:	51 1c       	adc	r5, r1
    106a:	f6 01       	movw	r30, r12
    106c:	93 81       	ldd	r25, Z+3	; 0x03
    106e:	f1 01       	movw	r30, r2
    1070:	93 fd       	sbrc	r25, 3
    1072:	85 91       	lpm	r24, Z+
    1074:	93 ff       	sbrs	r25, 3
    1076:	81 91       	ld	r24, Z+
    1078:	1f 01       	movw	r2, r30
    107a:	88 23       	and	r24, r24
    107c:	09 f4       	brne	.+2      	; 0x1080 <vfprintf+0x3c>
    107e:	be c1       	rjmp	.+892    	; 0x13fc <vfprintf+0x3b8>
    1080:	85 32       	cpi	r24, 0x25	; 37
    1082:	39 f4       	brne	.+14     	; 0x1092 <vfprintf+0x4e>
    1084:	93 fd       	sbrc	r25, 3
    1086:	85 91       	lpm	r24, Z+
    1088:	93 ff       	sbrs	r25, 3
    108a:	81 91       	ld	r24, Z+
    108c:	1f 01       	movw	r2, r30
    108e:	85 32       	cpi	r24, 0x25	; 37
    1090:	29 f4       	brne	.+10     	; 0x109c <vfprintf+0x58>
    1092:	90 e0       	ldi	r25, 0x00	; 0
    1094:	b6 01       	movw	r22, r12
    1096:	0e 94 38 0a 	call	0x1470	; 0x1470 <fputc>
    109a:	e7 cf       	rjmp	.-50     	; 0x106a <vfprintf+0x26>
    109c:	ee 24       	eor	r14, r14
    109e:	ff 24       	eor	r15, r15
    10a0:	20 e0       	ldi	r18, 0x00	; 0
    10a2:	20 32       	cpi	r18, 0x20	; 32
    10a4:	b0 f4       	brcc	.+44     	; 0x10d2 <vfprintf+0x8e>
    10a6:	8b 32       	cpi	r24, 0x2B	; 43
    10a8:	69 f0       	breq	.+26     	; 0x10c4 <vfprintf+0x80>
    10aa:	8c 32       	cpi	r24, 0x2C	; 44
    10ac:	28 f4       	brcc	.+10     	; 0x10b8 <vfprintf+0x74>
    10ae:	80 32       	cpi	r24, 0x20	; 32
    10b0:	51 f0       	breq	.+20     	; 0x10c6 <vfprintf+0x82>
    10b2:	83 32       	cpi	r24, 0x23	; 35
    10b4:	71 f4       	brne	.+28     	; 0x10d2 <vfprintf+0x8e>
    10b6:	0b c0       	rjmp	.+22     	; 0x10ce <vfprintf+0x8a>
    10b8:	8d 32       	cpi	r24, 0x2D	; 45
    10ba:	39 f0       	breq	.+14     	; 0x10ca <vfprintf+0x86>
    10bc:	80 33       	cpi	r24, 0x30	; 48
    10be:	49 f4       	brne	.+18     	; 0x10d2 <vfprintf+0x8e>
    10c0:	21 60       	ori	r18, 0x01	; 1
    10c2:	2c c0       	rjmp	.+88     	; 0x111c <vfprintf+0xd8>
    10c4:	22 60       	ori	r18, 0x02	; 2
    10c6:	24 60       	ori	r18, 0x04	; 4
    10c8:	29 c0       	rjmp	.+82     	; 0x111c <vfprintf+0xd8>
    10ca:	28 60       	ori	r18, 0x08	; 8
    10cc:	27 c0       	rjmp	.+78     	; 0x111c <vfprintf+0xd8>
    10ce:	20 61       	ori	r18, 0x10	; 16
    10d0:	25 c0       	rjmp	.+74     	; 0x111c <vfprintf+0xd8>
    10d2:	27 fd       	sbrc	r18, 7
    10d4:	2c c0       	rjmp	.+88     	; 0x112e <vfprintf+0xea>
    10d6:	38 2f       	mov	r19, r24
    10d8:	30 53       	subi	r19, 0x30	; 48
    10da:	3a 30       	cpi	r19, 0x0A	; 10
    10dc:	98 f4       	brcc	.+38     	; 0x1104 <vfprintf+0xc0>
    10de:	26 ff       	sbrs	r18, 6
    10e0:	08 c0       	rjmp	.+16     	; 0x10f2 <vfprintf+0xae>
    10e2:	8e 2d       	mov	r24, r14
    10e4:	88 0f       	add	r24, r24
    10e6:	e8 2e       	mov	r14, r24
    10e8:	ee 0c       	add	r14, r14
    10ea:	ee 0c       	add	r14, r14
    10ec:	e8 0e       	add	r14, r24
    10ee:	e3 0e       	add	r14, r19
    10f0:	15 c0       	rjmp	.+42     	; 0x111c <vfprintf+0xd8>
    10f2:	8f 2d       	mov	r24, r15
    10f4:	88 0f       	add	r24, r24
    10f6:	f8 2e       	mov	r15, r24
    10f8:	ff 0c       	add	r15, r15
    10fa:	ff 0c       	add	r15, r15
    10fc:	f8 0e       	add	r15, r24
    10fe:	f3 0e       	add	r15, r19
    1100:	20 62       	ori	r18, 0x20	; 32
    1102:	0c c0       	rjmp	.+24     	; 0x111c <vfprintf+0xd8>
    1104:	8e 32       	cpi	r24, 0x2E	; 46
    1106:	21 f4       	brne	.+8      	; 0x1110 <vfprintf+0xcc>
    1108:	26 fd       	sbrc	r18, 6
    110a:	78 c1       	rjmp	.+752    	; 0x13fc <vfprintf+0x3b8>
    110c:	20 64       	ori	r18, 0x40	; 64
    110e:	06 c0       	rjmp	.+12     	; 0x111c <vfprintf+0xd8>
    1110:	8c 36       	cpi	r24, 0x6C	; 108
    1112:	11 f4       	brne	.+4      	; 0x1118 <vfprintf+0xd4>
    1114:	20 68       	ori	r18, 0x80	; 128
    1116:	02 c0       	rjmp	.+4      	; 0x111c <vfprintf+0xd8>
    1118:	88 36       	cpi	r24, 0x68	; 104
    111a:	49 f4       	brne	.+18     	; 0x112e <vfprintf+0xea>
    111c:	f1 01       	movw	r30, r2
    111e:	93 fd       	sbrc	r25, 3
    1120:	85 91       	lpm	r24, Z+
    1122:	93 ff       	sbrs	r25, 3
    1124:	81 91       	ld	r24, Z+
    1126:	1f 01       	movw	r2, r30
    1128:	88 23       	and	r24, r24
    112a:	09 f0       	breq	.+2      	; 0x112e <vfprintf+0xea>
    112c:	ba cf       	rjmp	.-140    	; 0x10a2 <vfprintf+0x5e>
    112e:	98 2f       	mov	r25, r24
    1130:	95 54       	subi	r25, 0x45	; 69
    1132:	93 30       	cpi	r25, 0x03	; 3
    1134:	18 f0       	brcs	.+6      	; 0x113c <vfprintf+0xf8>
    1136:	90 52       	subi	r25, 0x20	; 32
    1138:	93 30       	cpi	r25, 0x03	; 3
    113a:	28 f4       	brcc	.+10     	; 0x1146 <vfprintf+0x102>
    113c:	0c 5f       	subi	r16, 0xFC	; 252
    113e:	1f 4f       	sbci	r17, 0xFF	; 255
    1140:	ff e3       	ldi	r31, 0x3F	; 63
    1142:	f9 83       	std	Y+1, r31	; 0x01
    1144:	0d c0       	rjmp	.+26     	; 0x1160 <vfprintf+0x11c>
    1146:	83 36       	cpi	r24, 0x63	; 99
    1148:	31 f0       	breq	.+12     	; 0x1156 <vfprintf+0x112>
    114a:	83 37       	cpi	r24, 0x73	; 115
    114c:	71 f0       	breq	.+28     	; 0x116a <vfprintf+0x126>
    114e:	83 35       	cpi	r24, 0x53	; 83
    1150:	09 f0       	breq	.+2      	; 0x1154 <vfprintf+0x110>
    1152:	60 c0       	rjmp	.+192    	; 0x1214 <vfprintf+0x1d0>
    1154:	22 c0       	rjmp	.+68     	; 0x119a <vfprintf+0x156>
    1156:	f8 01       	movw	r30, r16
    1158:	80 81       	ld	r24, Z
    115a:	89 83       	std	Y+1, r24	; 0x01
    115c:	0e 5f       	subi	r16, 0xFE	; 254
    115e:	1f 4f       	sbci	r17, 0xFF	; 255
    1160:	42 01       	movw	r8, r4
    1162:	71 e0       	ldi	r23, 0x01	; 1
    1164:	a7 2e       	mov	r10, r23
    1166:	b1 2c       	mov	r11, r1
    1168:	16 c0       	rjmp	.+44     	; 0x1196 <vfprintf+0x152>
    116a:	62 e0       	ldi	r22, 0x02	; 2
    116c:	66 2e       	mov	r6, r22
    116e:	71 2c       	mov	r7, r1
    1170:	60 0e       	add	r6, r16
    1172:	71 1e       	adc	r7, r17
    1174:	f8 01       	movw	r30, r16
    1176:	80 80       	ld	r8, Z
    1178:	91 80       	ldd	r9, Z+1	; 0x01
    117a:	26 ff       	sbrs	r18, 6
    117c:	03 c0       	rjmp	.+6      	; 0x1184 <vfprintf+0x140>
    117e:	6e 2d       	mov	r22, r14
    1180:	70 e0       	ldi	r23, 0x00	; 0
    1182:	02 c0       	rjmp	.+4      	; 0x1188 <vfprintf+0x144>
    1184:	6f ef       	ldi	r22, 0xFF	; 255
    1186:	7f ef       	ldi	r23, 0xFF	; 255
    1188:	c4 01       	movw	r24, r8
    118a:	2c 87       	std	Y+12, r18	; 0x0c
    118c:	0e 94 2d 0a 	call	0x145a	; 0x145a <strnlen>
    1190:	5c 01       	movw	r10, r24
    1192:	83 01       	movw	r16, r6
    1194:	2c 85       	ldd	r18, Y+12	; 0x0c
    1196:	2f 77       	andi	r18, 0x7F	; 127
    1198:	17 c0       	rjmp	.+46     	; 0x11c8 <vfprintf+0x184>
    119a:	52 e0       	ldi	r21, 0x02	; 2
    119c:	65 2e       	mov	r6, r21
    119e:	71 2c       	mov	r7, r1
    11a0:	60 0e       	add	r6, r16
    11a2:	71 1e       	adc	r7, r17
    11a4:	f8 01       	movw	r30, r16
    11a6:	80 80       	ld	r8, Z
    11a8:	91 80       	ldd	r9, Z+1	; 0x01
    11aa:	26 ff       	sbrs	r18, 6
    11ac:	03 c0       	rjmp	.+6      	; 0x11b4 <vfprintf+0x170>
    11ae:	6e 2d       	mov	r22, r14
    11b0:	70 e0       	ldi	r23, 0x00	; 0
    11b2:	02 c0       	rjmp	.+4      	; 0x11b8 <vfprintf+0x174>
    11b4:	6f ef       	ldi	r22, 0xFF	; 255
    11b6:	7f ef       	ldi	r23, 0xFF	; 255
    11b8:	c4 01       	movw	r24, r8
    11ba:	2c 87       	std	Y+12, r18	; 0x0c
    11bc:	0e 94 22 0a 	call	0x1444	; 0x1444 <strnlen_P>
    11c0:	5c 01       	movw	r10, r24
    11c2:	2c 85       	ldd	r18, Y+12	; 0x0c
    11c4:	20 68       	ori	r18, 0x80	; 128
    11c6:	83 01       	movw	r16, r6
    11c8:	23 fd       	sbrc	r18, 3
    11ca:	20 c0       	rjmp	.+64     	; 0x120c <vfprintf+0x1c8>
    11cc:	08 c0       	rjmp	.+16     	; 0x11de <vfprintf+0x19a>
    11ce:	80 e2       	ldi	r24, 0x20	; 32
    11d0:	90 e0       	ldi	r25, 0x00	; 0
    11d2:	b6 01       	movw	r22, r12
    11d4:	2c 87       	std	Y+12, r18	; 0x0c
    11d6:	0e 94 38 0a 	call	0x1470	; 0x1470 <fputc>
    11da:	fa 94       	dec	r15
    11dc:	2c 85       	ldd	r18, Y+12	; 0x0c
    11de:	8f 2d       	mov	r24, r15
    11e0:	90 e0       	ldi	r25, 0x00	; 0
    11e2:	a8 16       	cp	r10, r24
    11e4:	b9 06       	cpc	r11, r25
    11e6:	98 f3       	brcs	.-26     	; 0x11ce <vfprintf+0x18a>
    11e8:	11 c0       	rjmp	.+34     	; 0x120c <vfprintf+0x1c8>
    11ea:	f4 01       	movw	r30, r8
    11ec:	27 fd       	sbrc	r18, 7
    11ee:	85 91       	lpm	r24, Z+
    11f0:	27 ff       	sbrs	r18, 7
    11f2:	81 91       	ld	r24, Z+
    11f4:	4f 01       	movw	r8, r30
    11f6:	90 e0       	ldi	r25, 0x00	; 0
    11f8:	b6 01       	movw	r22, r12
    11fa:	2c 87       	std	Y+12, r18	; 0x0c
    11fc:	0e 94 38 0a 	call	0x1470	; 0x1470 <fputc>
    1200:	2c 85       	ldd	r18, Y+12	; 0x0c
    1202:	f1 10       	cpse	r15, r1
    1204:	fa 94       	dec	r15
    1206:	08 94       	sec
    1208:	a1 08       	sbc	r10, r1
    120a:	b1 08       	sbc	r11, r1
    120c:	a1 14       	cp	r10, r1
    120e:	b1 04       	cpc	r11, r1
    1210:	61 f7       	brne	.-40     	; 0x11ea <vfprintf+0x1a6>
    1212:	f1 c0       	rjmp	.+482    	; 0x13f6 <vfprintf+0x3b2>
    1214:	84 36       	cpi	r24, 0x64	; 100
    1216:	11 f0       	breq	.+4      	; 0x121c <vfprintf+0x1d8>
    1218:	89 36       	cpi	r24, 0x69	; 105
    121a:	49 f5       	brne	.+82     	; 0x126e <vfprintf+0x22a>
    121c:	27 ff       	sbrs	r18, 7
    121e:	08 c0       	rjmp	.+16     	; 0x1230 <vfprintf+0x1ec>
    1220:	f8 01       	movw	r30, r16
    1222:	60 81       	ld	r22, Z
    1224:	71 81       	ldd	r23, Z+1	; 0x01
    1226:	82 81       	ldd	r24, Z+2	; 0x02
    1228:	93 81       	ldd	r25, Z+3	; 0x03
    122a:	0c 5f       	subi	r16, 0xFC	; 252
    122c:	1f 4f       	sbci	r17, 0xFF	; 255
    122e:	09 c0       	rjmp	.+18     	; 0x1242 <vfprintf+0x1fe>
    1230:	f8 01       	movw	r30, r16
    1232:	60 81       	ld	r22, Z
    1234:	71 81       	ldd	r23, Z+1	; 0x01
    1236:	88 27       	eor	r24, r24
    1238:	77 fd       	sbrc	r23, 7
    123a:	80 95       	com	r24
    123c:	98 2f       	mov	r25, r24
    123e:	0e 5f       	subi	r16, 0xFE	; 254
    1240:	1f 4f       	sbci	r17, 0xFF	; 255
    1242:	4f e6       	ldi	r20, 0x6F	; 111
    1244:	b4 2e       	mov	r11, r20
    1246:	b2 22       	and	r11, r18
    1248:	97 ff       	sbrs	r25, 7
    124a:	09 c0       	rjmp	.+18     	; 0x125e <vfprintf+0x21a>
    124c:	90 95       	com	r25
    124e:	80 95       	com	r24
    1250:	70 95       	com	r23
    1252:	61 95       	neg	r22
    1254:	7f 4f       	sbci	r23, 0xFF	; 255
    1256:	8f 4f       	sbci	r24, 0xFF	; 255
    1258:	9f 4f       	sbci	r25, 0xFF	; 255
    125a:	f0 e8       	ldi	r31, 0x80	; 128
    125c:	bf 2a       	or	r11, r31
    125e:	a2 01       	movw	r20, r4
    1260:	2a e0       	ldi	r18, 0x0A	; 10
    1262:	30 e0       	ldi	r19, 0x00	; 0
    1264:	0e 94 64 0a 	call	0x14c8	; 0x14c8 <__ultoa_invert>
    1268:	78 2e       	mov	r7, r24
    126a:	74 18       	sub	r7, r4
    126c:	45 c0       	rjmp	.+138    	; 0x12f8 <vfprintf+0x2b4>
    126e:	85 37       	cpi	r24, 0x75	; 117
    1270:	31 f4       	brne	.+12     	; 0x127e <vfprintf+0x23a>
    1272:	3f ee       	ldi	r19, 0xEF	; 239
    1274:	b3 2e       	mov	r11, r19
    1276:	b2 22       	and	r11, r18
    1278:	2a e0       	ldi	r18, 0x0A	; 10
    127a:	30 e0       	ldi	r19, 0x00	; 0
    127c:	25 c0       	rjmp	.+74     	; 0x12c8 <vfprintf+0x284>
    127e:	99 ef       	ldi	r25, 0xF9	; 249
    1280:	b9 2e       	mov	r11, r25
    1282:	b2 22       	and	r11, r18
    1284:	8f 36       	cpi	r24, 0x6F	; 111
    1286:	c1 f0       	breq	.+48     	; 0x12b8 <vfprintf+0x274>
    1288:	80 37       	cpi	r24, 0x70	; 112
    128a:	20 f4       	brcc	.+8      	; 0x1294 <vfprintf+0x250>
    128c:	88 35       	cpi	r24, 0x58	; 88
    128e:	09 f0       	breq	.+2      	; 0x1292 <vfprintf+0x24e>
    1290:	b5 c0       	rjmp	.+362    	; 0x13fc <vfprintf+0x3b8>
    1292:	0d c0       	rjmp	.+26     	; 0x12ae <vfprintf+0x26a>
    1294:	80 37       	cpi	r24, 0x70	; 112
    1296:	21 f0       	breq	.+8      	; 0x12a0 <vfprintf+0x25c>
    1298:	88 37       	cpi	r24, 0x78	; 120
    129a:	09 f0       	breq	.+2      	; 0x129e <vfprintf+0x25a>
    129c:	af c0       	rjmp	.+350    	; 0x13fc <vfprintf+0x3b8>
    129e:	02 c0       	rjmp	.+4      	; 0x12a4 <vfprintf+0x260>
    12a0:	20 e1       	ldi	r18, 0x10	; 16
    12a2:	b2 2a       	or	r11, r18
    12a4:	b4 fe       	sbrs	r11, 4
    12a6:	0b c0       	rjmp	.+22     	; 0x12be <vfprintf+0x27a>
    12a8:	84 e0       	ldi	r24, 0x04	; 4
    12aa:	b8 2a       	or	r11, r24
    12ac:	08 c0       	rjmp	.+16     	; 0x12be <vfprintf+0x27a>
    12ae:	b4 fe       	sbrs	r11, 4
    12b0:	09 c0       	rjmp	.+18     	; 0x12c4 <vfprintf+0x280>
    12b2:	e6 e0       	ldi	r30, 0x06	; 6
    12b4:	be 2a       	or	r11, r30
    12b6:	06 c0       	rjmp	.+12     	; 0x12c4 <vfprintf+0x280>
    12b8:	28 e0       	ldi	r18, 0x08	; 8
    12ba:	30 e0       	ldi	r19, 0x00	; 0
    12bc:	05 c0       	rjmp	.+10     	; 0x12c8 <vfprintf+0x284>
    12be:	20 e1       	ldi	r18, 0x10	; 16
    12c0:	30 e0       	ldi	r19, 0x00	; 0
    12c2:	02 c0       	rjmp	.+4      	; 0x12c8 <vfprintf+0x284>
    12c4:	20 e1       	ldi	r18, 0x10	; 16
    12c6:	32 e0       	ldi	r19, 0x02	; 2
    12c8:	b7 fe       	sbrs	r11, 7
    12ca:	08 c0       	rjmp	.+16     	; 0x12dc <vfprintf+0x298>
    12cc:	f8 01       	movw	r30, r16
    12ce:	60 81       	ld	r22, Z
    12d0:	71 81       	ldd	r23, Z+1	; 0x01
    12d2:	82 81       	ldd	r24, Z+2	; 0x02
    12d4:	93 81       	ldd	r25, Z+3	; 0x03
    12d6:	0c 5f       	subi	r16, 0xFC	; 252
    12d8:	1f 4f       	sbci	r17, 0xFF	; 255
    12da:	07 c0       	rjmp	.+14     	; 0x12ea <vfprintf+0x2a6>
    12dc:	f8 01       	movw	r30, r16
    12de:	60 81       	ld	r22, Z
    12e0:	71 81       	ldd	r23, Z+1	; 0x01
    12e2:	80 e0       	ldi	r24, 0x00	; 0
    12e4:	90 e0       	ldi	r25, 0x00	; 0
    12e6:	0e 5f       	subi	r16, 0xFE	; 254
    12e8:	1f 4f       	sbci	r17, 0xFF	; 255
    12ea:	a2 01       	movw	r20, r4
    12ec:	0e 94 64 0a 	call	0x14c8	; 0x14c8 <__ultoa_invert>
    12f0:	78 2e       	mov	r7, r24
    12f2:	74 18       	sub	r7, r4
    12f4:	ff e7       	ldi	r31, 0x7F	; 127
    12f6:	bf 22       	and	r11, r31
    12f8:	b6 fe       	sbrs	r11, 6
    12fa:	0b c0       	rjmp	.+22     	; 0x1312 <vfprintf+0x2ce>
    12fc:	2e ef       	ldi	r18, 0xFE	; 254
    12fe:	b2 22       	and	r11, r18
    1300:	7e 14       	cp	r7, r14
    1302:	38 f4       	brcc	.+14     	; 0x1312 <vfprintf+0x2ce>
    1304:	b4 fe       	sbrs	r11, 4
    1306:	07 c0       	rjmp	.+14     	; 0x1316 <vfprintf+0x2d2>
    1308:	b2 fc       	sbrc	r11, 2
    130a:	05 c0       	rjmp	.+10     	; 0x1316 <vfprintf+0x2d2>
    130c:	8f ee       	ldi	r24, 0xEF	; 239
    130e:	b8 22       	and	r11, r24
    1310:	02 c0       	rjmp	.+4      	; 0x1316 <vfprintf+0x2d2>
    1312:	a7 2c       	mov	r10, r7
    1314:	01 c0       	rjmp	.+2      	; 0x1318 <vfprintf+0x2d4>
    1316:	ae 2c       	mov	r10, r14
    1318:	8b 2d       	mov	r24, r11
    131a:	90 e0       	ldi	r25, 0x00	; 0
    131c:	b4 fe       	sbrs	r11, 4
    131e:	0d c0       	rjmp	.+26     	; 0x133a <vfprintf+0x2f6>
    1320:	fe 01       	movw	r30, r28
    1322:	e7 0d       	add	r30, r7
    1324:	f1 1d       	adc	r31, r1
    1326:	20 81       	ld	r18, Z
    1328:	20 33       	cpi	r18, 0x30	; 48
    132a:	19 f4       	brne	.+6      	; 0x1332 <vfprintf+0x2ee>
    132c:	e9 ee       	ldi	r30, 0xE9	; 233
    132e:	be 22       	and	r11, r30
    1330:	09 c0       	rjmp	.+18     	; 0x1344 <vfprintf+0x300>
    1332:	a3 94       	inc	r10
    1334:	b2 fe       	sbrs	r11, 2
    1336:	06 c0       	rjmp	.+12     	; 0x1344 <vfprintf+0x300>
    1338:	04 c0       	rjmp	.+8      	; 0x1342 <vfprintf+0x2fe>
    133a:	86 78       	andi	r24, 0x86	; 134
    133c:	90 70       	andi	r25, 0x00	; 0
    133e:	00 97       	sbiw	r24, 0x00	; 0
    1340:	09 f0       	breq	.+2      	; 0x1344 <vfprintf+0x300>
    1342:	a3 94       	inc	r10
    1344:	8b 2c       	mov	r8, r11
    1346:	99 24       	eor	r9, r9
    1348:	b3 fc       	sbrc	r11, 3
    134a:	14 c0       	rjmp	.+40     	; 0x1374 <vfprintf+0x330>
    134c:	b0 fe       	sbrs	r11, 0
    134e:	0f c0       	rjmp	.+30     	; 0x136e <vfprintf+0x32a>
    1350:	af 14       	cp	r10, r15
    1352:	28 f4       	brcc	.+10     	; 0x135e <vfprintf+0x31a>
    1354:	e7 2c       	mov	r14, r7
    1356:	ef 0c       	add	r14, r15
    1358:	ea 18       	sub	r14, r10
    135a:	af 2c       	mov	r10, r15
    135c:	08 c0       	rjmp	.+16     	; 0x136e <vfprintf+0x32a>
    135e:	e7 2c       	mov	r14, r7
    1360:	06 c0       	rjmp	.+12     	; 0x136e <vfprintf+0x32a>
    1362:	80 e2       	ldi	r24, 0x20	; 32
    1364:	90 e0       	ldi	r25, 0x00	; 0
    1366:	b6 01       	movw	r22, r12
    1368:	0e 94 38 0a 	call	0x1470	; 0x1470 <fputc>
    136c:	a3 94       	inc	r10
    136e:	af 14       	cp	r10, r15
    1370:	c0 f3       	brcs	.-16     	; 0x1362 <vfprintf+0x31e>
    1372:	04 c0       	rjmp	.+8      	; 0x137c <vfprintf+0x338>
    1374:	af 14       	cp	r10, r15
    1376:	10 f4       	brcc	.+4      	; 0x137c <vfprintf+0x338>
    1378:	fa 18       	sub	r15, r10
    137a:	01 c0       	rjmp	.+2      	; 0x137e <vfprintf+0x33a>
    137c:	ff 24       	eor	r15, r15
    137e:	84 fe       	sbrs	r8, 4
    1380:	0f c0       	rjmp	.+30     	; 0x13a0 <vfprintf+0x35c>
    1382:	80 e3       	ldi	r24, 0x30	; 48
    1384:	90 e0       	ldi	r25, 0x00	; 0
    1386:	b6 01       	movw	r22, r12
    1388:	0e 94 38 0a 	call	0x1470	; 0x1470 <fputc>
    138c:	82 fe       	sbrs	r8, 2
    138e:	1f c0       	rjmp	.+62     	; 0x13ce <vfprintf+0x38a>
    1390:	81 fe       	sbrs	r8, 1
    1392:	03 c0       	rjmp	.+6      	; 0x139a <vfprintf+0x356>
    1394:	88 e5       	ldi	r24, 0x58	; 88
    1396:	90 e0       	ldi	r25, 0x00	; 0
    1398:	10 c0       	rjmp	.+32     	; 0x13ba <vfprintf+0x376>
    139a:	88 e7       	ldi	r24, 0x78	; 120
    139c:	90 e0       	ldi	r25, 0x00	; 0
    139e:	0d c0       	rjmp	.+26     	; 0x13ba <vfprintf+0x376>
    13a0:	c4 01       	movw	r24, r8
    13a2:	86 78       	andi	r24, 0x86	; 134
    13a4:	90 70       	andi	r25, 0x00	; 0
    13a6:	00 97       	sbiw	r24, 0x00	; 0
    13a8:	91 f0       	breq	.+36     	; 0x13ce <vfprintf+0x38a>
    13aa:	81 fc       	sbrc	r8, 1
    13ac:	02 c0       	rjmp	.+4      	; 0x13b2 <vfprintf+0x36e>
    13ae:	80 e2       	ldi	r24, 0x20	; 32
    13b0:	01 c0       	rjmp	.+2      	; 0x13b4 <vfprintf+0x370>
    13b2:	8b e2       	ldi	r24, 0x2B	; 43
    13b4:	b7 fc       	sbrc	r11, 7
    13b6:	8d e2       	ldi	r24, 0x2D	; 45
    13b8:	90 e0       	ldi	r25, 0x00	; 0
    13ba:	b6 01       	movw	r22, r12
    13bc:	0e 94 38 0a 	call	0x1470	; 0x1470 <fputc>
    13c0:	06 c0       	rjmp	.+12     	; 0x13ce <vfprintf+0x38a>
    13c2:	80 e3       	ldi	r24, 0x30	; 48
    13c4:	90 e0       	ldi	r25, 0x00	; 0
    13c6:	b6 01       	movw	r22, r12
    13c8:	0e 94 38 0a 	call	0x1470	; 0x1470 <fputc>
    13cc:	ea 94       	dec	r14
    13ce:	7e 14       	cp	r7, r14
    13d0:	c0 f3       	brcs	.-16     	; 0x13c2 <vfprintf+0x37e>
    13d2:	7a 94       	dec	r7
    13d4:	f2 01       	movw	r30, r4
    13d6:	e7 0d       	add	r30, r7
    13d8:	f1 1d       	adc	r31, r1
    13da:	80 81       	ld	r24, Z
    13dc:	90 e0       	ldi	r25, 0x00	; 0
    13de:	b6 01       	movw	r22, r12
    13e0:	0e 94 38 0a 	call	0x1470	; 0x1470 <fputc>
    13e4:	77 20       	and	r7, r7
    13e6:	a9 f7       	brne	.-22     	; 0x13d2 <vfprintf+0x38e>
    13e8:	06 c0       	rjmp	.+12     	; 0x13f6 <vfprintf+0x3b2>
    13ea:	80 e2       	ldi	r24, 0x20	; 32
    13ec:	90 e0       	ldi	r25, 0x00	; 0
    13ee:	b6 01       	movw	r22, r12
    13f0:	0e 94 38 0a 	call	0x1470	; 0x1470 <fputc>
    13f4:	fa 94       	dec	r15
    13f6:	ff 20       	and	r15, r15
    13f8:	c1 f7       	brne	.-16     	; 0x13ea <vfprintf+0x3a6>
    13fa:	37 ce       	rjmp	.-914    	; 0x106a <vfprintf+0x26>
    13fc:	f6 01       	movw	r30, r12
    13fe:	26 81       	ldd	r18, Z+6	; 0x06
    1400:	37 81       	ldd	r19, Z+7	; 0x07
    1402:	02 c0       	rjmp	.+4      	; 0x1408 <vfprintf+0x3c4>
    1404:	2f ef       	ldi	r18, 0xFF	; 255
    1406:	3f ef       	ldi	r19, 0xFF	; 255
    1408:	c9 01       	movw	r24, r18
    140a:	2c 96       	adiw	r28, 0x0c	; 12
    140c:	e2 e1       	ldi	r30, 0x12	; 18
    140e:	0c 94 de 0a 	jmp	0x15bc	; 0x15bc <__epilogue_restores__>

00001412 <__eerd_byte_m16>:
    1412:	e1 99       	sbic	0x1c, 1	; 28
    1414:	fe cf       	rjmp	.-4      	; 0x1412 <__eerd_byte_m16>
    1416:	9f bb       	out	0x1f, r25	; 31
    1418:	8e bb       	out	0x1e, r24	; 30
    141a:	e0 9a       	sbi	0x1c, 0	; 28
    141c:	99 27       	eor	r25, r25
    141e:	8d b3       	in	r24, 0x1d	; 29
    1420:	08 95       	ret

00001422 <__eeupd_byte_m16>:
    1422:	26 2f       	mov	r18, r22

00001424 <__eeupd_r18_m16>:
    1424:	e1 99       	sbic	0x1c, 1	; 28
    1426:	fe cf       	rjmp	.-4      	; 0x1424 <__eeupd_r18_m16>
    1428:	9f bb       	out	0x1f, r25	; 31
    142a:	8e bb       	out	0x1e, r24	; 30
    142c:	e0 9a       	sbi	0x1c, 0	; 28
    142e:	01 97       	sbiw	r24, 0x01	; 1
    1430:	0d b2       	in	r0, 0x1d	; 29
    1432:	02 16       	cp	r0, r18
    1434:	31 f0       	breq	.+12     	; 0x1442 <__eeupd_r18_m16+0x1e>
    1436:	2d bb       	out	0x1d, r18	; 29
    1438:	0f b6       	in	r0, 0x3f	; 63
    143a:	f8 94       	cli
    143c:	e2 9a       	sbi	0x1c, 2	; 28
    143e:	e1 9a       	sbi	0x1c, 1	; 28
    1440:	0f be       	out	0x3f, r0	; 63
    1442:	08 95       	ret

00001444 <strnlen_P>:
    1444:	fc 01       	movw	r30, r24
    1446:	05 90       	lpm	r0, Z+
    1448:	61 50       	subi	r22, 0x01	; 1
    144a:	70 40       	sbci	r23, 0x00	; 0
    144c:	01 10       	cpse	r0, r1
    144e:	d8 f7       	brcc	.-10     	; 0x1446 <strnlen_P+0x2>
    1450:	80 95       	com	r24
    1452:	90 95       	com	r25
    1454:	8e 0f       	add	r24, r30
    1456:	9f 1f       	adc	r25, r31
    1458:	08 95       	ret

0000145a <strnlen>:
    145a:	fc 01       	movw	r30, r24
    145c:	61 50       	subi	r22, 0x01	; 1
    145e:	70 40       	sbci	r23, 0x00	; 0
    1460:	01 90       	ld	r0, Z+
    1462:	01 10       	cpse	r0, r1
    1464:	d8 f7       	brcc	.-10     	; 0x145c <strnlen+0x2>
    1466:	80 95       	com	r24
    1468:	90 95       	com	r25
    146a:	8e 0f       	add	r24, r30
    146c:	9f 1f       	adc	r25, r31
    146e:	08 95       	ret

00001470 <fputc>:
    1470:	0f 93       	push	r16
    1472:	1f 93       	push	r17
    1474:	cf 93       	push	r28
    1476:	df 93       	push	r29
    1478:	8c 01       	movw	r16, r24
    147a:	eb 01       	movw	r28, r22
    147c:	8b 81       	ldd	r24, Y+3	; 0x03
    147e:	81 ff       	sbrs	r24, 1
    1480:	1b c0       	rjmp	.+54     	; 0x14b8 <fputc+0x48>
    1482:	82 ff       	sbrs	r24, 2
    1484:	0d c0       	rjmp	.+26     	; 0x14a0 <fputc+0x30>
    1486:	2e 81       	ldd	r18, Y+6	; 0x06
    1488:	3f 81       	ldd	r19, Y+7	; 0x07
    148a:	8c 81       	ldd	r24, Y+4	; 0x04
    148c:	9d 81       	ldd	r25, Y+5	; 0x05
    148e:	28 17       	cp	r18, r24
    1490:	39 07       	cpc	r19, r25
    1492:	64 f4       	brge	.+24     	; 0x14ac <fputc+0x3c>
    1494:	e8 81       	ld	r30, Y
    1496:	f9 81       	ldd	r31, Y+1	; 0x01
    1498:	01 93       	st	Z+, r16
    149a:	f9 83       	std	Y+1, r31	; 0x01
    149c:	e8 83       	st	Y, r30
    149e:	06 c0       	rjmp	.+12     	; 0x14ac <fputc+0x3c>
    14a0:	e8 85       	ldd	r30, Y+8	; 0x08
    14a2:	f9 85       	ldd	r31, Y+9	; 0x09
    14a4:	80 2f       	mov	r24, r16
    14a6:	09 95       	icall
    14a8:	00 97       	sbiw	r24, 0x00	; 0
    14aa:	31 f4       	brne	.+12     	; 0x14b8 <fputc+0x48>
    14ac:	8e 81       	ldd	r24, Y+6	; 0x06
    14ae:	9f 81       	ldd	r25, Y+7	; 0x07
    14b0:	01 96       	adiw	r24, 0x01	; 1
    14b2:	9f 83       	std	Y+7, r25	; 0x07
    14b4:	8e 83       	std	Y+6, r24	; 0x06
    14b6:	02 c0       	rjmp	.+4      	; 0x14bc <fputc+0x4c>
    14b8:	0f ef       	ldi	r16, 0xFF	; 255
    14ba:	1f ef       	ldi	r17, 0xFF	; 255
    14bc:	c8 01       	movw	r24, r16
    14be:	df 91       	pop	r29
    14c0:	cf 91       	pop	r28
    14c2:	1f 91       	pop	r17
    14c4:	0f 91       	pop	r16
    14c6:	08 95       	ret

000014c8 <__ultoa_invert>:
    14c8:	fa 01       	movw	r30, r20
    14ca:	aa 27       	eor	r26, r26
    14cc:	28 30       	cpi	r18, 0x08	; 8
    14ce:	51 f1       	breq	.+84     	; 0x1524 <__ultoa_invert+0x5c>
    14d0:	20 31       	cpi	r18, 0x10	; 16
    14d2:	81 f1       	breq	.+96     	; 0x1534 <__ultoa_invert+0x6c>
    14d4:	e8 94       	clt
    14d6:	6f 93       	push	r22
    14d8:	6e 7f       	andi	r22, 0xFE	; 254
    14da:	6e 5f       	subi	r22, 0xFE	; 254
    14dc:	7f 4f       	sbci	r23, 0xFF	; 255
    14de:	8f 4f       	sbci	r24, 0xFF	; 255
    14e0:	9f 4f       	sbci	r25, 0xFF	; 255
    14e2:	af 4f       	sbci	r26, 0xFF	; 255
    14e4:	b1 e0       	ldi	r27, 0x01	; 1
    14e6:	3e d0       	rcall	.+124    	; 0x1564 <__ultoa_invert+0x9c>
    14e8:	b4 e0       	ldi	r27, 0x04	; 4
    14ea:	3c d0       	rcall	.+120    	; 0x1564 <__ultoa_invert+0x9c>
    14ec:	67 0f       	add	r22, r23
    14ee:	78 1f       	adc	r23, r24
    14f0:	89 1f       	adc	r24, r25
    14f2:	9a 1f       	adc	r25, r26
    14f4:	a1 1d       	adc	r26, r1
    14f6:	68 0f       	add	r22, r24
    14f8:	79 1f       	adc	r23, r25
    14fa:	8a 1f       	adc	r24, r26
    14fc:	91 1d       	adc	r25, r1
    14fe:	a1 1d       	adc	r26, r1
    1500:	6a 0f       	add	r22, r26
    1502:	71 1d       	adc	r23, r1
    1504:	81 1d       	adc	r24, r1
    1506:	91 1d       	adc	r25, r1
    1508:	a1 1d       	adc	r26, r1
    150a:	20 d0       	rcall	.+64     	; 0x154c <__ultoa_invert+0x84>
    150c:	09 f4       	brne	.+2      	; 0x1510 <__ultoa_invert+0x48>
    150e:	68 94       	set
    1510:	3f 91       	pop	r19
    1512:	2a e0       	ldi	r18, 0x0A	; 10
    1514:	26 9f       	mul	r18, r22
    1516:	11 24       	eor	r1, r1
    1518:	30 19       	sub	r19, r0
    151a:	30 5d       	subi	r19, 0xD0	; 208
    151c:	31 93       	st	Z+, r19
    151e:	de f6       	brtc	.-74     	; 0x14d6 <__ultoa_invert+0xe>
    1520:	cf 01       	movw	r24, r30
    1522:	08 95       	ret
    1524:	46 2f       	mov	r20, r22
    1526:	47 70       	andi	r20, 0x07	; 7
    1528:	40 5d       	subi	r20, 0xD0	; 208
    152a:	41 93       	st	Z+, r20
    152c:	b3 e0       	ldi	r27, 0x03	; 3
    152e:	0f d0       	rcall	.+30     	; 0x154e <__ultoa_invert+0x86>
    1530:	c9 f7       	brne	.-14     	; 0x1524 <__ultoa_invert+0x5c>
    1532:	f6 cf       	rjmp	.-20     	; 0x1520 <__ultoa_invert+0x58>
    1534:	46 2f       	mov	r20, r22
    1536:	4f 70       	andi	r20, 0x0F	; 15
    1538:	40 5d       	subi	r20, 0xD0	; 208
    153a:	4a 33       	cpi	r20, 0x3A	; 58
    153c:	18 f0       	brcs	.+6      	; 0x1544 <__ultoa_invert+0x7c>
    153e:	49 5d       	subi	r20, 0xD9	; 217
    1540:	31 fd       	sbrc	r19, 1
    1542:	40 52       	subi	r20, 0x20	; 32
    1544:	41 93       	st	Z+, r20
    1546:	02 d0       	rcall	.+4      	; 0x154c <__ultoa_invert+0x84>
    1548:	a9 f7       	brne	.-22     	; 0x1534 <__ultoa_invert+0x6c>
    154a:	ea cf       	rjmp	.-44     	; 0x1520 <__ultoa_invert+0x58>
    154c:	b4 e0       	ldi	r27, 0x04	; 4
    154e:	a6 95       	lsr	r26
    1550:	97 95       	ror	r25
    1552:	87 95       	ror	r24
    1554:	77 95       	ror	r23
    1556:	67 95       	ror	r22
    1558:	ba 95       	dec	r27
    155a:	c9 f7       	brne	.-14     	; 0x154e <__ultoa_invert+0x86>
    155c:	00 97       	sbiw	r24, 0x00	; 0
    155e:	61 05       	cpc	r22, r1
    1560:	71 05       	cpc	r23, r1
    1562:	08 95       	ret
    1564:	9b 01       	movw	r18, r22
    1566:	ac 01       	movw	r20, r24
    1568:	0a 2e       	mov	r0, r26
    156a:	06 94       	lsr	r0
    156c:	57 95       	ror	r21
    156e:	47 95       	ror	r20
    1570:	37 95       	ror	r19
    1572:	27 95       	ror	r18
    1574:	ba 95       	dec	r27
    1576:	c9 f7       	brne	.-14     	; 0x156a <__ultoa_invert+0xa2>
    1578:	62 0f       	add	r22, r18
    157a:	73 1f       	adc	r23, r19
    157c:	84 1f       	adc	r24, r20
    157e:	95 1f       	adc	r25, r21
    1580:	a0 1d       	adc	r26, r0
    1582:	08 95       	ret

00001584 <__prologue_saves__>:
    1584:	2f 92       	push	r2
    1586:	3f 92       	push	r3
    1588:	4f 92       	push	r4
    158a:	5f 92       	push	r5
    158c:	6f 92       	push	r6
    158e:	7f 92       	push	r7
    1590:	8f 92       	push	r8
    1592:	9f 92       	push	r9
    1594:	af 92       	push	r10
    1596:	bf 92       	push	r11
    1598:	cf 92       	push	r12
    159a:	df 92       	push	r13
    159c:	ef 92       	push	r14
    159e:	ff 92       	push	r15
    15a0:	0f 93       	push	r16
    15a2:	1f 93       	push	r17
    15a4:	cf 93       	push	r28
    15a6:	df 93       	push	r29
    15a8:	cd b7       	in	r28, 0x3d	; 61
    15aa:	de b7       	in	r29, 0x3e	; 62
    15ac:	ca 1b       	sub	r28, r26
    15ae:	db 0b       	sbc	r29, r27
    15b0:	0f b6       	in	r0, 0x3f	; 63
    15b2:	f8 94       	cli
    15b4:	de bf       	out	0x3e, r29	; 62
    15b6:	0f be       	out	0x3f, r0	; 63
    15b8:	cd bf       	out	0x3d, r28	; 61
    15ba:	09 94       	ijmp

000015bc <__epilogue_restores__>:
    15bc:	2a 88       	ldd	r2, Y+18	; 0x12
    15be:	39 88       	ldd	r3, Y+17	; 0x11
    15c0:	48 88       	ldd	r4, Y+16	; 0x10
    15c2:	5f 84       	ldd	r5, Y+15	; 0x0f
    15c4:	6e 84       	ldd	r6, Y+14	; 0x0e
    15c6:	7d 84       	ldd	r7, Y+13	; 0x0d
    15c8:	8c 84       	ldd	r8, Y+12	; 0x0c
    15ca:	9b 84       	ldd	r9, Y+11	; 0x0b
    15cc:	aa 84       	ldd	r10, Y+10	; 0x0a
    15ce:	b9 84       	ldd	r11, Y+9	; 0x09
    15d0:	c8 84       	ldd	r12, Y+8	; 0x08
    15d2:	df 80       	ldd	r13, Y+7	; 0x07
    15d4:	ee 80       	ldd	r14, Y+6	; 0x06
    15d6:	fd 80       	ldd	r15, Y+5	; 0x05
    15d8:	0c 81       	ldd	r16, Y+4	; 0x04
    15da:	1b 81       	ldd	r17, Y+3	; 0x03
    15dc:	aa 81       	ldd	r26, Y+2	; 0x02
    15de:	b9 81       	ldd	r27, Y+1	; 0x01
    15e0:	ce 0f       	add	r28, r30
    15e2:	d1 1d       	adc	r29, r1
    15e4:	0f b6       	in	r0, 0x3f	; 63
    15e6:	f8 94       	cli
    15e8:	de bf       	out	0x3e, r29	; 62
    15ea:	0f be       	out	0x3f, r0	; 63
    15ec:	cd bf       	out	0x3d, r28	; 61
    15ee:	ed 01       	movw	r28, r26
    15f0:	08 95       	ret

000015f2 <_exit>:
    15f2:	f8 94       	cli

000015f4 <__stop_program>:
    15f4:	ff cf       	rjmp	.-2      	; 0x15f4 <__stop_program>
